ARM GAS  C:\Users\DAVIDW~1\AppData\Local\Temp\cc8ZNA3W.s 			page 1


   1              		.syntax unified
   2              		.cpu cortex-m4
   3              		.eabi_attribute 27, 1
   4              		.fpu fpv4-sp-d16
   5              		.eabi_attribute 20, 1
   6              		.eabi_attribute 21, 1
   7              		.eabi_attribute 23, 3
   8              		.eabi_attribute 24, 1
   9              		.eabi_attribute 25, 1
  10              		.eabi_attribute 26, 1
  11              		.eabi_attribute 30, 1
  12              		.eabi_attribute 34, 1
  13              		.eabi_attribute 18, 4
  14              		.thumb
  15              		.syntax unified
  16              		.file	"CapSense_Filter.c"
  17              		.text
  18              	.Ltext0:
  19              		.cfi_sections	.debug_frame
  20              		.section	.text.CapSense_FtInitialize,"ax",%progbits
  21              		.align	2
  22              		.global	CapSense_FtInitialize
  23              		.thumb
  24              		.thumb_func
  25              		.type	CapSense_FtInitialize, %function
  26              	CapSense_FtInitialize:
  27              	.LFB125:
  28              		.file 1 "Generated_Source\\PSoC6\\CapSense_Filter.c"
   1:Generated_Source\PSoC6/CapSense_Filter.c **** /***************************************************************************//**
   2:Generated_Source\PSoC6/CapSense_Filter.c **** * \file CapSense_Filter.c
   3:Generated_Source\PSoC6/CapSense_Filter.c **** * \version 2.0
   4:Generated_Source\PSoC6/CapSense_Filter.c **** *
   5:Generated_Source\PSoC6/CapSense_Filter.c **** * \brief
   6:Generated_Source\PSoC6/CapSense_Filter.c **** *   This file contains the implementation source code to implement all
   7:Generated_Source\PSoC6/CapSense_Filter.c **** *   firmware filters.
   8:Generated_Source\PSoC6/CapSense_Filter.c **** *
   9:Generated_Source\PSoC6/CapSense_Filter.c **** * \see CapSense v2.0 Datasheet
  10:Generated_Source\PSoC6/CapSense_Filter.c **** *
  11:Generated_Source\PSoC6/CapSense_Filter.c **** *//*****************************************************************************
  12:Generated_Source\PSoC6/CapSense_Filter.c **** * Copyright (2016-2017), Cypress Semiconductor Corporation.
  13:Generated_Source\PSoC6/CapSense_Filter.c **** ********************************************************************************
  14:Generated_Source\PSoC6/CapSense_Filter.c **** * This software is owned by Cypress Semiconductor Corporation (Cypress) and is
  15:Generated_Source\PSoC6/CapSense_Filter.c **** * protected by and subject to worldwide patent protection (United States and
  16:Generated_Source\PSoC6/CapSense_Filter.c **** * foreign), United States copyright laws and international treaty provisions.
  17:Generated_Source\PSoC6/CapSense_Filter.c **** * Cypress hereby grants to licensee a personal, non-exclusive, non-transferable
  18:Generated_Source\PSoC6/CapSense_Filter.c **** * license to copy, use, modify, create derivative works of, and compile the
  19:Generated_Source\PSoC6/CapSense_Filter.c **** * Cypress Source Code and derivative works for the sole purpose of creating
  20:Generated_Source\PSoC6/CapSense_Filter.c **** * custom software in support of licensee product to be used only in conjunction
  21:Generated_Source\PSoC6/CapSense_Filter.c **** * with a Cypress integrated circuit as specified in the applicable agreement.
  22:Generated_Source\PSoC6/CapSense_Filter.c **** * Any reproduction, modification, translation, compilation, or representation of
  23:Generated_Source\PSoC6/CapSense_Filter.c **** * this software except as specified above is prohibited without the express
  24:Generated_Source\PSoC6/CapSense_Filter.c **** * written permission of Cypress.
  25:Generated_Source\PSoC6/CapSense_Filter.c **** *
  26:Generated_Source\PSoC6/CapSense_Filter.c **** * Disclaimer: CYPRESS MAKES NO WARRANTY OF ANY KIND, EXPRESS OR IMPLIED, WITH
  27:Generated_Source\PSoC6/CapSense_Filter.c **** * REGARD TO THIS MATERIAL, INCLUDING, BUT NOT LIMITED TO, THE IMPLIED
  28:Generated_Source\PSoC6/CapSense_Filter.c **** * WARRANTIES OF MERCHANTABILITY AND FITNESS FOR A PARTICULAR PURPOSE.
  29:Generated_Source\PSoC6/CapSense_Filter.c **** * Cypress reserves the right to make changes without further notice to the
ARM GAS  C:\Users\DAVIDW~1\AppData\Local\Temp\cc8ZNA3W.s 			page 2


  30:Generated_Source\PSoC6/CapSense_Filter.c **** * materials described herein. Cypress does not assume any liability arising out
  31:Generated_Source\PSoC6/CapSense_Filter.c **** * of the application or use of any product or circuit described herein. Cypress
  32:Generated_Source\PSoC6/CapSense_Filter.c **** * does not authorize its products for use as critical components in life-support
  33:Generated_Source\PSoC6/CapSense_Filter.c **** * systems where a malfunction or failure may reasonably be expected to result in
  34:Generated_Source\PSoC6/CapSense_Filter.c **** * significant injury to the user. The inclusion of Cypress' product in a life-
  35:Generated_Source\PSoC6/CapSense_Filter.c **** * support systems application implies that the manufacturer assumes all risk of
  36:Generated_Source\PSoC6/CapSense_Filter.c **** * such use and in doing so indemnifies Cypress against all charges. Use may be
  37:Generated_Source\PSoC6/CapSense_Filter.c **** * limited by and subject to the applicable Cypress software license agreement.
  38:Generated_Source\PSoC6/CapSense_Filter.c **** *******************************************************************************/
  39:Generated_Source\PSoC6/CapSense_Filter.c **** 
  40:Generated_Source\PSoC6/CapSense_Filter.c **** #include "stddef.h"
  41:Generated_Source\PSoC6/CapSense_Filter.c **** #include "CapSense_Filter.h"
  42:Generated_Source\PSoC6/CapSense_Filter.c **** #include "CapSense_Configuration.h"
  43:Generated_Source\PSoC6/CapSense_Filter.c **** 
  44:Generated_Source\PSoC6/CapSense_Filter.c **** #if (0 != (CapSense_CSD_AUTOTUNE & CapSense_CSD_SS_TH_EN))
  45:Generated_Source\PSoC6/CapSense_Filter.c ****     #include "CapSense_SmartSense_LL.h"
  46:Generated_Source\PSoC6/CapSense_Filter.c **** #endif /* (0 != (CapSense_CSD_AUTOTUNE & CapSense_CSD_SS_TH_EN)) */
  47:Generated_Source\PSoC6/CapSense_Filter.c **** 
  48:Generated_Source\PSoC6/CapSense_Filter.c **** #if (CapSense_ENABLE == CapSense_SELF_TEST_EN)
  49:Generated_Source\PSoC6/CapSense_Filter.c ****     #include "CapSense_SelfTest.h"
  50:Generated_Source\PSoC6/CapSense_Filter.c **** #endif
  51:Generated_Source\PSoC6/CapSense_Filter.c **** 
  52:Generated_Source\PSoC6/CapSense_Filter.c **** /*******************************************************************************
  53:Generated_Source\PSoC6/CapSense_Filter.c **** * Function Name: CapSense_FtInitialize
  54:Generated_Source\PSoC6/CapSense_Filter.c **** ****************************************************************************//**
  55:Generated_Source\PSoC6/CapSense_Filter.c **** *
  56:Generated_Source\PSoC6/CapSense_Filter.c **** * \brief
  57:Generated_Source\PSoC6/CapSense_Filter.c **** *    Initializes all the firmware filter history, except the baseline filter.
  58:Generated_Source\PSoC6/CapSense_Filter.c **** *
  59:Generated_Source\PSoC6/CapSense_Filter.c **** * \details
  60:Generated_Source\PSoC6/CapSense_Filter.c **** *    Initializes all the firmware filter history, except the baseline filter.
  61:Generated_Source\PSoC6/CapSense_Filter.c **** *
  62:Generated_Source\PSoC6/CapSense_Filter.c **** *******************************************************************************/
  63:Generated_Source\PSoC6/CapSense_Filter.c **** void CapSense_FtInitialize(void)
  64:Generated_Source\PSoC6/CapSense_Filter.c **** {
  29              		.loc 1 64 0
  30              		.cfi_startproc
  31              		@ args = 0, pretend = 0, frame = 0
  32              		@ frame_needed = 0, uses_anonymous_args = 0
  33              		@ link register save eliminated.
  34 0000 7047     		bx	lr
  35              		.cfi_endproc
  36              	.LFE125:
  37              		.size	CapSense_FtInitialize, .-CapSense_FtInitialize
  38 0002 00BF     		.section	.text.CapSense_FtInitializeBaselineChannel,"ax",%progbits
  39              		.align	2
  40              		.global	CapSense_FtInitializeBaselineChannel
  41              		.thumb
  42              		.thumb_func
  43              		.type	CapSense_FtInitializeBaselineChannel, %function
  44              	CapSense_FtInitializeBaselineChannel:
  45              	.LFB134:
  65:Generated_Source\PSoC6/CapSense_Filter.c ****     #if ((CapSense_ENABLE == CapSense_RC_FILTER_EN) || \
  66:Generated_Source\PSoC6/CapSense_Filter.c ****          (0u != (CapSense_CSD_AUTOTUNE & CapSense_CSD_SS_TH_EN)))
  67:Generated_Source\PSoC6/CapSense_Filter.c ****         CapSense_InitializeAllFilters();
  68:Generated_Source\PSoC6/CapSense_Filter.c ****     #endif /* ((CapSense_ENABLE == CapSense_RC_FILTER_EN) || \
  69:Generated_Source\PSoC6/CapSense_Filter.c ****                (0u != (CapSense_CSD_AUTOTUNE & CapSense_CSD_SS_TH_EN))) */
ARM GAS  C:\Users\DAVIDW~1\AppData\Local\Temp\cc8ZNA3W.s 			page 3


  70:Generated_Source\PSoC6/CapSense_Filter.c **** }
  71:Generated_Source\PSoC6/CapSense_Filter.c **** 
  72:Generated_Source\PSoC6/CapSense_Filter.c **** 
  73:Generated_Source\PSoC6/CapSense_Filter.c **** /*******************************************************************************
  74:Generated_Source\PSoC6/CapSense_Filter.c **** * Function Name: CapSense_UpdateAllBaselines
  75:Generated_Source\PSoC6/CapSense_Filter.c **** ****************************************************************************//**
  76:Generated_Source\PSoC6/CapSense_Filter.c **** *
  77:Generated_Source\PSoC6/CapSense_Filter.c **** * \brief
  78:Generated_Source\PSoC6/CapSense_Filter.c **** *  Updates the baseline for all the sensors in all the widgets.
  79:Generated_Source\PSoC6/CapSense_Filter.c **** *
  80:Generated_Source\PSoC6/CapSense_Filter.c **** * \details
  81:Generated_Source\PSoC6/CapSense_Filter.c **** *  Updates the baseline for all the sensors in all the widgets. Baseline updating is a
  82:Generated_Source\PSoC6/CapSense_Filter.c **** *  part of data processing performed by the process functions. So, no need to
  83:Generated_Source\PSoC6/CapSense_Filter.c **** *  call this function except a specific process flow is implemented.
  84:Generated_Source\PSoC6/CapSense_Filter.c **** *
  85:Generated_Source\PSoC6/CapSense_Filter.c **** *  This function ignores the value of the wdgtEnable register. Multiple calling
  86:Generated_Source\PSoC6/CapSense_Filter.c **** *  of this function (or any other function with a baseline updating task)
  87:Generated_Source\PSoC6/CapSense_Filter.c **** *  without scanning leads to unexpected behavior.
  88:Generated_Source\PSoC6/CapSense_Filter.c **** *
  89:Generated_Source\PSoC6/CapSense_Filter.c **** *  If the Self-test library is enabled, this function executes the baseline duplication
  90:Generated_Source\PSoC6/CapSense_Filter.c **** *  test. Refer to CapSense_CheckBaselineDuplication() for details.
  91:Generated_Source\PSoC6/CapSense_Filter.c **** *
  92:Generated_Source\PSoC6/CapSense_Filter.c **** * \return
  93:Generated_Source\PSoC6/CapSense_Filter.c **** *  Returns the status of the update baseline operation of all the widgets:
  94:Generated_Source\PSoC6/CapSense_Filter.c **** *  - CY_RET_SUCCESS - The operation is successfully completed.
  95:Generated_Source\PSoC6/CapSense_Filter.c **** *  - CY_RET_BAD_DATA - The baseline processing failed.
  96:Generated_Source\PSoC6/CapSense_Filter.c **** *
  97:Generated_Source\PSoC6/CapSense_Filter.c **** *******************************************************************************/
  98:Generated_Source\PSoC6/CapSense_Filter.c **** cy_status CapSense_UpdateAllBaselines(void)
  99:Generated_Source\PSoC6/CapSense_Filter.c **** {
 100:Generated_Source\PSoC6/CapSense_Filter.c ****     uint32 widgetId;
 101:Generated_Source\PSoC6/CapSense_Filter.c ****     cy_status bslnStatus = CY_RET_SUCCESS;
 102:Generated_Source\PSoC6/CapSense_Filter.c **** 
 103:Generated_Source\PSoC6/CapSense_Filter.c ****     for(widgetId = CapSense_TOTAL_WIDGETS; widgetId-- > 0u;)
 104:Generated_Source\PSoC6/CapSense_Filter.c ****     {
 105:Generated_Source\PSoC6/CapSense_Filter.c ****         bslnStatus |= CapSense_UpdateWidgetBaseline(widgetId);
 106:Generated_Source\PSoC6/CapSense_Filter.c ****     }
 107:Generated_Source\PSoC6/CapSense_Filter.c **** 
 108:Generated_Source\PSoC6/CapSense_Filter.c ****     return(bslnStatus);
 109:Generated_Source\PSoC6/CapSense_Filter.c **** }
 110:Generated_Source\PSoC6/CapSense_Filter.c **** 
 111:Generated_Source\PSoC6/CapSense_Filter.c **** 
 112:Generated_Source\PSoC6/CapSense_Filter.c **** /*******************************************************************************
 113:Generated_Source\PSoC6/CapSense_Filter.c **** * Function Name: CapSense_UpdateWidgetBaseline
 114:Generated_Source\PSoC6/CapSense_Filter.c **** ****************************************************************************//**
 115:Generated_Source\PSoC6/CapSense_Filter.c **** *
 116:Generated_Source\PSoC6/CapSense_Filter.c **** * \brief
 117:Generated_Source\PSoC6/CapSense_Filter.c **** *  Updates the baselines for all the sensors in a widget specified by the input parameter.
 118:Generated_Source\PSoC6/CapSense_Filter.c **** *
 119:Generated_Source\PSoC6/CapSense_Filter.c **** * \details
 120:Generated_Source\PSoC6/CapSense_Filter.c **** *  This function performs exactly the same tasks as
 121:Generated_Source\PSoC6/CapSense_Filter.c **** *  CapSense_UpdateAllBaselines() but only for a specified widget.
 122:Generated_Source\PSoC6/CapSense_Filter.c **** *
 123:Generated_Source\PSoC6/CapSense_Filter.c **** *  This function ignores the value of the wdgtEnable register. Multiple calling
 124:Generated_Source\PSoC6/CapSense_Filter.c **** *  of this function (or any other function with a baseline updating task)
 125:Generated_Source\PSoC6/CapSense_Filter.c **** *  without scanning leads to unexpected behavior.
 126:Generated_Source\PSoC6/CapSense_Filter.c **** *
ARM GAS  C:\Users\DAVIDW~1\AppData\Local\Temp\cc8ZNA3W.s 			page 4


 127:Generated_Source\PSoC6/CapSense_Filter.c **** *  If the Self-test library is enabled, this function executes the baseline duplication
 128:Generated_Source\PSoC6/CapSense_Filter.c **** *  test. Refer to CapSense_CheckBaselineDuplication() for details.
 129:Generated_Source\PSoC6/CapSense_Filter.c **** *
 130:Generated_Source\PSoC6/CapSense_Filter.c **** * \param widgetId
 131:Generated_Source\PSoC6/CapSense_Filter.c **** *  Specifies the ID number of the widget to update the baseline of all the sensors
 132:Generated_Source\PSoC6/CapSense_Filter.c **** *  in the widget.
 133:Generated_Source\PSoC6/CapSense_Filter.c **** *  A macro for the widget ID can be found in the
 134:Generated_Source\PSoC6/CapSense_Filter.c **** *  CapSense Configuration header file defined as
 135:Generated_Source\PSoC6/CapSense_Filter.c **** *  CapSense_<WidgetName>_WDGT_ID.
 136:Generated_Source\PSoC6/CapSense_Filter.c **** *
 137:Generated_Source\PSoC6/CapSense_Filter.c **** * \return
 138:Generated_Source\PSoC6/CapSense_Filter.c **** *  Returns the status of the specified widget update baseline operation:
 139:Generated_Source\PSoC6/CapSense_Filter.c **** *  - CY_RET_SUCCESS - The operation is successfully completed.
 140:Generated_Source\PSoC6/CapSense_Filter.c **** *  - CY_RET_BAD_DATA - The baseline processing failed.
 141:Generated_Source\PSoC6/CapSense_Filter.c **** *
 142:Generated_Source\PSoC6/CapSense_Filter.c **** *******************************************************************************/
 143:Generated_Source\PSoC6/CapSense_Filter.c **** cy_status CapSense_UpdateWidgetBaseline(uint32 widgetId)
 144:Generated_Source\PSoC6/CapSense_Filter.c **** {
 145:Generated_Source\PSoC6/CapSense_Filter.c ****     uint32 sensorId;
 146:Generated_Source\PSoC6/CapSense_Filter.c ****     uint32 sensorsNumber;
 147:Generated_Source\PSoC6/CapSense_Filter.c **** 
 148:Generated_Source\PSoC6/CapSense_Filter.c ****     CapSense_FLASH_WD_STRUCT const *ptrWidget = &CapSense_dsFlash.wdgtArray[widgetId];
 149:Generated_Source\PSoC6/CapSense_Filter.c ****     cy_status bslnStatus = CY_RET_SUCCESS;
 150:Generated_Source\PSoC6/CapSense_Filter.c **** 
 151:Generated_Source\PSoC6/CapSense_Filter.c ****     /* Find total amount of sensors in specified widget */
 152:Generated_Source\PSoC6/CapSense_Filter.c ****     sensorsNumber = CapSense_GET_SNS_CNT_BY_PTR(ptrWidget);
 153:Generated_Source\PSoC6/CapSense_Filter.c **** 
 154:Generated_Source\PSoC6/CapSense_Filter.c ****     for(sensorId = sensorsNumber; sensorId-- > 0u;)
 155:Generated_Source\PSoC6/CapSense_Filter.c ****     {
 156:Generated_Source\PSoC6/CapSense_Filter.c ****         bslnStatus |= CapSense_UpdateSensorBaseline(widgetId, sensorId);
 157:Generated_Source\PSoC6/CapSense_Filter.c ****     }
 158:Generated_Source\PSoC6/CapSense_Filter.c **** 
 159:Generated_Source\PSoC6/CapSense_Filter.c ****     return(bslnStatus);
 160:Generated_Source\PSoC6/CapSense_Filter.c **** }
 161:Generated_Source\PSoC6/CapSense_Filter.c **** 
 162:Generated_Source\PSoC6/CapSense_Filter.c **** 
 163:Generated_Source\PSoC6/CapSense_Filter.c **** /*******************************************************************************
 164:Generated_Source\PSoC6/CapSense_Filter.c **** * Function Name: CapSense_UpdateSensorBaseline
 165:Generated_Source\PSoC6/CapSense_Filter.c **** ****************************************************************************//**
 166:Generated_Source\PSoC6/CapSense_Filter.c **** *
 167:Generated_Source\PSoC6/CapSense_Filter.c **** * \brief
 168:Generated_Source\PSoC6/CapSense_Filter.c **** *  Updates the baseline for a sensor in a widget specified by the input parameters.
 169:Generated_Source\PSoC6/CapSense_Filter.c **** *
 170:Generated_Source\PSoC6/CapSense_Filter.c **** * \details
 171:Generated_Source\PSoC6/CapSense_Filter.c **** *  This function performs exactly the same tasks as
 172:Generated_Source\PSoC6/CapSense_Filter.c **** *  CapSense_UpdateAllBaselines() and
 173:Generated_Source\PSoC6/CapSense_Filter.c **** *  CapSense_UpdateWidgetBaseline() but only for a specified sensor.
 174:Generated_Source\PSoC6/CapSense_Filter.c **** *
 175:Generated_Source\PSoC6/CapSense_Filter.c **** *  This function ignores the value of the wdgtEnable register. Multiple calling
 176:Generated_Source\PSoC6/CapSense_Filter.c **** *  of this function (or any other function with a baseline updating task)
 177:Generated_Source\PSoC6/CapSense_Filter.c **** *  without scanning leads to unexpected behavior.
 178:Generated_Source\PSoC6/CapSense_Filter.c **** *
 179:Generated_Source\PSoC6/CapSense_Filter.c **** *  If the Self-test library is enabled, this function executes the baseline duplication
 180:Generated_Source\PSoC6/CapSense_Filter.c **** *  test. Refer to CapSense_CheckBaselineDuplication() for details.
 181:Generated_Source\PSoC6/CapSense_Filter.c **** *
 182:Generated_Source\PSoC6/CapSense_Filter.c **** * \param   widgetId
 183:Generated_Source\PSoC6/CapSense_Filter.c **** *  Specifies the ID number of the widget to update the baseline of the sensor
ARM GAS  C:\Users\DAVIDW~1\AppData\Local\Temp\cc8ZNA3W.s 			page 5


 184:Generated_Source\PSoC6/CapSense_Filter.c **** *  specified by the sensorId argument.
 185:Generated_Source\PSoC6/CapSense_Filter.c **** *  A macro for the widget ID can be found in the CapSense Configuration header
 186:Generated_Source\PSoC6/CapSense_Filter.c **** *  file defined as CapSense_<WidgetName>_WDGT_ID.
 187:Generated_Source\PSoC6/CapSense_Filter.c **** *
 188:Generated_Source\PSoC6/CapSense_Filter.c **** * \param   sensorId
 189:Generated_Source\PSoC6/CapSense_Filter.c **** *  Specifies the ID number of the sensor within the widget to update its baseline.
 190:Generated_Source\PSoC6/CapSense_Filter.c **** *  A macro for the sensor ID within a specified widget can be found in the
 191:Generated_Source\PSoC6/CapSense_Filter.c **** *  CapSense Configuration header file defined as
 192:Generated_Source\PSoC6/CapSense_Filter.c **** *  CapSense_<WidgetName>_SNS<SensorNumber>_ID.
 193:Generated_Source\PSoC6/CapSense_Filter.c **** *
 194:Generated_Source\PSoC6/CapSense_Filter.c **** * \return
 195:Generated_Source\PSoC6/CapSense_Filter.c **** *  Returns the status of the specified sensor update baseline operation:
 196:Generated_Source\PSoC6/CapSense_Filter.c **** *  - CY_RET_SUCCESS - The operation is successfully completed.
 197:Generated_Source\PSoC6/CapSense_Filter.c **** *  - CY_RET_BAD_DATA - The baseline processing failed.
 198:Generated_Source\PSoC6/CapSense_Filter.c **** *
 199:Generated_Source\PSoC6/CapSense_Filter.c **** *******************************************************************************/
 200:Generated_Source\PSoC6/CapSense_Filter.c **** cy_status CapSense_UpdateSensorBaseline(uint32 widgetId, uint32 sensorId)
 201:Generated_Source\PSoC6/CapSense_Filter.c **** {
 202:Generated_Source\PSoC6/CapSense_Filter.c ****     uint32 result = CY_RET_SUCCESS;
 203:Generated_Source\PSoC6/CapSense_Filter.c **** 
 204:Generated_Source\PSoC6/CapSense_Filter.c ****     CapSense_RAM_SNS_STRUCT *ptrSensor = NULL;
 205:Generated_Source\PSoC6/CapSense_Filter.c ****     CapSense_FLASH_WD_STRUCT const *ptrWidget = &CapSense_dsFlash.wdgtArray[widgetId];
 206:Generated_Source\PSoC6/CapSense_Filter.c ****     CapSense_RAM_WD_BASE_STRUCT *ptrWidgetRam = (CapSense_RAM_WD_BASE_STRUCT *)ptrWidget->ptr2WdgtR
 207:Generated_Source\PSoC6/CapSense_Filter.c **** 
 208:Generated_Source\PSoC6/CapSense_Filter.c ****     /* Find pointer to specified sensor object */
 209:Generated_Source\PSoC6/CapSense_Filter.c ****     ptrSensor = ptrWidget->ptr2SnsRam;
 210:Generated_Source\PSoC6/CapSense_Filter.c ****     ptrSensor = &ptrSensor[sensorId];
 211:Generated_Source\PSoC6/CapSense_Filter.c ****     result = CapSense_FtUpdateBaseline(ptrWidgetRam, ptrSensor, (uint32)ptrWidget->wdgtType);
 212:Generated_Source\PSoC6/CapSense_Filter.c **** 
 213:Generated_Source\PSoC6/CapSense_Filter.c ****     #if (CapSense_ENABLE == CapSense_TST_BSLN_DUPLICATION_EN)
 214:Generated_Source\PSoC6/CapSense_Filter.c ****         if (CY_RET_SUCCESS != result)
 215:Generated_Source\PSoC6/CapSense_Filter.c ****         {
 216:Generated_Source\PSoC6/CapSense_Filter.c ****             result = CY_RET_BAD_DATA;
 217:Generated_Source\PSoC6/CapSense_Filter.c ****             CapSense_UpdateTestResultBaselineDuplication(widgetId, sensorId);
 218:Generated_Source\PSoC6/CapSense_Filter.c ****         }
 219:Generated_Source\PSoC6/CapSense_Filter.c ****     #endif /* (CapSense_ENABLE == CapSense_TST_BSLN_DUPLICATION_EN) */
 220:Generated_Source\PSoC6/CapSense_Filter.c **** 
 221:Generated_Source\PSoC6/CapSense_Filter.c ****     return result;
 222:Generated_Source\PSoC6/CapSense_Filter.c **** }
 223:Generated_Source\PSoC6/CapSense_Filter.c **** 
 224:Generated_Source\PSoC6/CapSense_Filter.c **** /*******************************************************************************
 225:Generated_Source\PSoC6/CapSense_Filter.c **** * Function Name: CapSense_FtUpdateBaseline
 226:Generated_Source\PSoC6/CapSense_Filter.c **** ****************************************************************************//**
 227:Generated_Source\PSoC6/CapSense_Filter.c **** *
 228:Generated_Source\PSoC6/CapSense_Filter.c **** * \brief
 229:Generated_Source\PSoC6/CapSense_Filter.c **** *  Updates the baseline for a sensor specified by an input parameter.
 230:Generated_Source\PSoC6/CapSense_Filter.c **** *
 231:Generated_Source\PSoC6/CapSense_Filter.c **** * \details
 232:Generated_Source\PSoC6/CapSense_Filter.c **** *  Check a matching of present baseline and its inverse duplication. If they
 233:Generated_Source\PSoC6/CapSense_Filter.c **** *  match then updates the baseline for a sensor specified by an input parameter.
 234:Generated_Source\PSoC6/CapSense_Filter.c **** *  If don't match the function return CapSense_TST_BSLN_DUPLICATION
 235:Generated_Source\PSoC6/CapSense_Filter.c **** *  result and don't update baseline.
 236:Generated_Source\PSoC6/CapSense_Filter.c **** *
 237:Generated_Source\PSoC6/CapSense_Filter.c **** * \param    ptrWidgetRam
 238:Generated_Source\PSoC6/CapSense_Filter.c **** *  The pointer to the widget RAM structure where all the widget parameters
 239:Generated_Source\PSoC6/CapSense_Filter.c **** *  are stored.
 240:Generated_Source\PSoC6/CapSense_Filter.c **** *
ARM GAS  C:\Users\DAVIDW~1\AppData\Local\Temp\cc8ZNA3W.s 			page 6


 241:Generated_Source\PSoC6/CapSense_Filter.c **** * \param    ptrSensor
 242:Generated_Source\PSoC6/CapSense_Filter.c **** *  The pointer to the sensor RAM structure where all the sensor parameters
 243:Generated_Source\PSoC6/CapSense_Filter.c **** *  are stored.
 244:Generated_Source\PSoC6/CapSense_Filter.c **** *
 245:Generated_Source\PSoC6/CapSense_Filter.c **** * \param    wdType
 246:Generated_Source\PSoC6/CapSense_Filter.c **** *  Specifies the type of a widget.
 247:Generated_Source\PSoC6/CapSense_Filter.c **** *
 248:Generated_Source\PSoC6/CapSense_Filter.c **** * \return
 249:Generated_Source\PSoC6/CapSense_Filter.c **** *  Returns a status indicating whether the baseline has been updated:
 250:Generated_Source\PSoC6/CapSense_Filter.c **** *  - CY_RET_SUCCESS if baseline updating was successful;
 251:Generated_Source\PSoC6/CapSense_Filter.c **** *  - CapSense_PROCESS_BASELINE_FAILED if present sensor's any channel
 252:Generated_Source\PSoC6/CapSense_Filter.c **** *    baseline and its inversion doesn't matched
 253:Generated_Source\PSoC6/CapSense_Filter.c **** *
 254:Generated_Source\PSoC6/CapSense_Filter.c **** *******************************************************************************/
 255:Generated_Source\PSoC6/CapSense_Filter.c **** uint32 CapSense_FtUpdateBaseline(
 256:Generated_Source\PSoC6/CapSense_Filter.c ****                                 CapSense_RAM_WD_BASE_STRUCT *ptrWidgetRam,
 257:Generated_Source\PSoC6/CapSense_Filter.c ****                                 CapSense_RAM_SNS_STRUCT *ptrSensor,
 258:Generated_Source\PSoC6/CapSense_Filter.c ****                                 uint32 wdType)
 259:Generated_Source\PSoC6/CapSense_Filter.c **** {
 260:Generated_Source\PSoC6/CapSense_Filter.c ****     uint32 sign;
 261:Generated_Source\PSoC6/CapSense_Filter.c ****     uint32 difference;
 262:Generated_Source\PSoC6/CapSense_Filter.c ****     uint32 freqChannel;
 263:Generated_Source\PSoC6/CapSense_Filter.c ****     uint32 baselineCoeff;
 264:Generated_Source\PSoC6/CapSense_Filter.c ****     uint32 result = CY_RET_SUCCESS;
 265:Generated_Source\PSoC6/CapSense_Filter.c **** 
 266:Generated_Source\PSoC6/CapSense_Filter.c ****     #if (CapSense_TOTAL_WIDGETS)
 267:Generated_Source\PSoC6/CapSense_Filter.c ****         uint32 history;
 268:Generated_Source\PSoC6/CapSense_Filter.c ****     #endif /* (CapSense_TOTAL_WIDGETS) */
 269:Generated_Source\PSoC6/CapSense_Filter.c **** 
 270:Generated_Source\PSoC6/CapSense_Filter.c ****     /* Apply baseline to every channel in sensor */
 271:Generated_Source\PSoC6/CapSense_Filter.c ****     for(freqChannel = CapSense_NUM_SCAN_FREQS; freqChannel-- > 0u;)
 272:Generated_Source\PSoC6/CapSense_Filter.c ****     {
 273:Generated_Source\PSoC6/CapSense_Filter.c ****         #if (CapSense_ENABLE == CapSense_TST_BSLN_DUPLICATION_EN)
 274:Generated_Source\PSoC6/CapSense_Filter.c ****             if (ptrSensor->bslnInv[freqChannel] != ((uint16) ~(ptrSensor->bsln[freqChannel])))
 275:Generated_Source\PSoC6/CapSense_Filter.c ****             {
 276:Generated_Source\PSoC6/CapSense_Filter.c ****                 result = CapSense_PROCESS_BASELINE_FAILED;
 277:Generated_Source\PSoC6/CapSense_Filter.c ****             }
 278:Generated_Source\PSoC6/CapSense_Filter.c ****             else
 279:Generated_Source\PSoC6/CapSense_Filter.c ****             {
 280:Generated_Source\PSoC6/CapSense_Filter.c ****         #endif /* (CapSense_ENABLE == CapSense_TST_BSLN_DUPLICATION_EN) */
 281:Generated_Source\PSoC6/CapSense_Filter.c **** 
 282:Generated_Source\PSoC6/CapSense_Filter.c ****         /* Calculate signal value and its sign */
 283:Generated_Source\PSoC6/CapSense_Filter.c ****         if(ptrSensor->raw[freqChannel] >= ptrSensor->bsln[freqChannel])
 284:Generated_Source\PSoC6/CapSense_Filter.c ****         {
 285:Generated_Source\PSoC6/CapSense_Filter.c ****             difference = (uint32)ptrSensor->raw[freqChannel] - (uint32)ptrSensor->bsln[freqChannel]
 286:Generated_Source\PSoC6/CapSense_Filter.c ****             sign = 1u;
 287:Generated_Source\PSoC6/CapSense_Filter.c ****             ptrSensor->negBslnRstCnt[freqChannel] = 0u;
 288:Generated_Source\PSoC6/CapSense_Filter.c ****         }
 289:Generated_Source\PSoC6/CapSense_Filter.c ****         else
 290:Generated_Source\PSoC6/CapSense_Filter.c ****         {
 291:Generated_Source\PSoC6/CapSense_Filter.c ****             difference = (uint32)ptrSensor->bsln[freqChannel] - (uint32)ptrSensor->raw[freqChannel]
 292:Generated_Source\PSoC6/CapSense_Filter.c ****             sign = 0u;
 293:Generated_Source\PSoC6/CapSense_Filter.c ****         }
 294:Generated_Source\PSoC6/CapSense_Filter.c **** 
 295:Generated_Source\PSoC6/CapSense_Filter.c ****         /* Reset baseline if condition is met */
 296:Generated_Source\PSoC6/CapSense_Filter.c ****         if((sign == 0u) && (difference > (uint32) ptrWidgetRam->nNoiseTh))
 297:Generated_Source\PSoC6/CapSense_Filter.c ****         {
ARM GAS  C:\Users\DAVIDW~1\AppData\Local\Temp\cc8ZNA3W.s 			page 7


 298:Generated_Source\PSoC6/CapSense_Filter.c ****             if(ptrSensor->negBslnRstCnt[freqChannel] >= ptrWidgetRam->lowBslnRst)
 299:Generated_Source\PSoC6/CapSense_Filter.c ****             {
 300:Generated_Source\PSoC6/CapSense_Filter.c ****                 CapSense_FtInitializeBaselineChannel(ptrSensor, wdType, freqChannel);
 301:Generated_Source\PSoC6/CapSense_Filter.c ****             }
 302:Generated_Source\PSoC6/CapSense_Filter.c ****             else
 303:Generated_Source\PSoC6/CapSense_Filter.c ****             {
 304:Generated_Source\PSoC6/CapSense_Filter.c ****                 ptrSensor->negBslnRstCnt[freqChannel]++;
 305:Generated_Source\PSoC6/CapSense_Filter.c ****             }
 306:Generated_Source\PSoC6/CapSense_Filter.c ****         }
 307:Generated_Source\PSoC6/CapSense_Filter.c ****         else
 308:Generated_Source\PSoC6/CapSense_Filter.c ****         {
 309:Generated_Source\PSoC6/CapSense_Filter.c ****             #if (!CapSense_SENSOR_AUTO_RESET_EN)
 310:Generated_Source\PSoC6/CapSense_Filter.c ****                 /* Update baseline only if signal is in range between noiseThreshold and negativeno
 311:Generated_Source\PSoC6/CapSense_Filter.c ****                 if ((difference <= (uint32)ptrWidgetRam->noiseTh) ||
 312:Generated_Source\PSoC6/CapSense_Filter.c ****                     ((difference < (uint32) ptrWidgetRam->nNoiseTh) && (sign == 0u)))
 313:Generated_Source\PSoC6/CapSense_Filter.c ****                 {
 314:Generated_Source\PSoC6/CapSense_Filter.c ****             #endif /* (CapSense_CSD_AUTO_RESET == CapSense_CSD_AUTO_RESET_DISABLE) */
 315:Generated_Source\PSoC6/CapSense_Filter.c **** 
 316:Generated_Source\PSoC6/CapSense_Filter.c ****             #if (CapSense_BASELINE_TYPE == CapSense_IIR_BASELINE)
 317:Generated_Source\PSoC6/CapSense_Filter.c ****                 /* Calculate baseline value */
 318:Generated_Source\PSoC6/CapSense_Filter.c ****                 if ((CapSense_WD_TYPE_ENUM)wdType != CapSense_WD_PROXIMITY_E)
 319:Generated_Source\PSoC6/CapSense_Filter.c ****                 {
 320:Generated_Source\PSoC6/CapSense_Filter.c ****                     #if (CapSense_REGULAR_SENSOR_EN)
 321:Generated_Source\PSoC6/CapSense_Filter.c ****                         #if (CapSense_REGULAR_IIR_BL_TYPE == CapSense_IIR_FILTER_PERFORMANCE)
 322:Generated_Source\PSoC6/CapSense_Filter.c ****                             history = (uint32) ptrSensor->bsln[freqChannel] << 8u;
 323:Generated_Source\PSoC6/CapSense_Filter.c ****                             history |= ptrSensor->bslnExt[freqChannel];
 324:Generated_Source\PSoC6/CapSense_Filter.c ****                         #else
 325:Generated_Source\PSoC6/CapSense_Filter.c ****                             history = ptrSensor->bsln[freqChannel];
 326:Generated_Source\PSoC6/CapSense_Filter.c ****                         #endif /* (CapSense_REGULAR_IIR_BL_TYPE == CapSense_IIR_FILTER_PERFORMANCE)
 327:Generated_Source\PSoC6/CapSense_Filter.c **** 
 328:Generated_Source\PSoC6/CapSense_Filter.c ****                         #if (CapSense_ENABLE == CapSense_WD_BSLN_COEFF_EN)
 329:Generated_Source\PSoC6/CapSense_Filter.c ****                             baselineCoeff = ptrWidgetRam->bslnCoeff;
 330:Generated_Source\PSoC6/CapSense_Filter.c ****                         #else /* (CapSense_ENABLE == CapSense_WD_BSLN_COEFF_EN) */
 331:Generated_Source\PSoC6/CapSense_Filter.c ****                             baselineCoeff = CapSense_REGULAR_IIR_BL_N;
 332:Generated_Source\PSoC6/CapSense_Filter.c ****                         #endif /* (CapSense_ENABLE == CapSense_WD_BSLN_COEFF_EN) */
 333:Generated_Source\PSoC6/CapSense_Filter.c **** 
 334:Generated_Source\PSoC6/CapSense_Filter.c ****                         history =  CapSense_FtIIR1stOrder(
 335:Generated_Source\PSoC6/CapSense_Filter.c ****                                         (uint32)ptrSensor->raw[freqChannel],
 336:Generated_Source\PSoC6/CapSense_Filter.c ****                                         history, baselineCoeff,
 337:Generated_Source\PSoC6/CapSense_Filter.c ****                                         CapSense_REGULAR_IIR_BL_SHIFT);
 338:Generated_Source\PSoC6/CapSense_Filter.c **** 
 339:Generated_Source\PSoC6/CapSense_Filter.c ****                         #if (CapSense_REGULAR_IIR_BL_TYPE == CapSense_IIR_FILTER_PERFORMANCE)
 340:Generated_Source\PSoC6/CapSense_Filter.c ****                                     ptrSensor->bsln[freqChannel] = CY_LO16(history >> 8u);
 341:Generated_Source\PSoC6/CapSense_Filter.c ****                                     ptrSensor->bslnExt[freqChannel] = CY_LO8(history);
 342:Generated_Source\PSoC6/CapSense_Filter.c ****                         #else
 343:Generated_Source\PSoC6/CapSense_Filter.c ****                                     ptrSensor->bsln[freqChannel] = CY_LO16(history);
 344:Generated_Source\PSoC6/CapSense_Filter.c ****                         #endif /* (CapSense_REGULAR_IIR_BL_TYPE == CapSense_IIR_FILTER_PERFORMANCE)
 345:Generated_Source\PSoC6/CapSense_Filter.c ****                     #endif /* (CapSense_REGULAR_SENSOR_EN) */
 346:Generated_Source\PSoC6/CapSense_Filter.c ****                 }
 347:Generated_Source\PSoC6/CapSense_Filter.c ****                 else
 348:Generated_Source\PSoC6/CapSense_Filter.c ****                 {
 349:Generated_Source\PSoC6/CapSense_Filter.c ****                     #if (CapSense_PROXIMITY_SENSOR_EN)
 350:Generated_Source\PSoC6/CapSense_Filter.c ****                         #if (CapSense_PROX_IIR_BL_TYPE == CapSense_IIR_FILTER_PERFORMANCE)
 351:Generated_Source\PSoC6/CapSense_Filter.c ****                             history = (uint32) ptrSensor->bsln[freqChannel] << 8u;
 352:Generated_Source\PSoC6/CapSense_Filter.c ****                             history |= ptrSensor->bslnExt[freqChannel];
 353:Generated_Source\PSoC6/CapSense_Filter.c ****                         #else
 354:Generated_Source\PSoC6/CapSense_Filter.c ****                             history = (uint32) ptrSensor->bsln[freqChannel];
ARM GAS  C:\Users\DAVIDW~1\AppData\Local\Temp\cc8ZNA3W.s 			page 8


 355:Generated_Source\PSoC6/CapSense_Filter.c ****                         #endif /* (CapSense_PROX_IIR_BL_TYPE == CapSense_IIR_FILTER_PERFORMANCE) */
 356:Generated_Source\PSoC6/CapSense_Filter.c **** 
 357:Generated_Source\PSoC6/CapSense_Filter.c ****                         #if (CapSense_ENABLE == CapSense_WD_BSLN_COEFF_EN)
 358:Generated_Source\PSoC6/CapSense_Filter.c ****                             baselineCoeff = ptrWidgetRam->bslnCoeff;
 359:Generated_Source\PSoC6/CapSense_Filter.c ****                         #else /* (CapSense_ENABLE == CapSense_WD_BSLN_COEFF_EN) */
 360:Generated_Source\PSoC6/CapSense_Filter.c ****                             baselineCoeff = CapSense_PROX_IIR_BL_N;
 361:Generated_Source\PSoC6/CapSense_Filter.c ****                         #endif /* (CapSense_ENABLE == CapSense_WD_BSLN_COEFF_EN) */
 362:Generated_Source\PSoC6/CapSense_Filter.c **** 
 363:Generated_Source\PSoC6/CapSense_Filter.c ****                         history = CapSense_FtIIR1stOrder(
 364:Generated_Source\PSoC6/CapSense_Filter.c ****                                         (uint32)ptrSensor->raw[freqChannel],
 365:Generated_Source\PSoC6/CapSense_Filter.c ****                                         history, baselineCoeff,
 366:Generated_Source\PSoC6/CapSense_Filter.c ****                                         CapSense_PROX_IIR_BL_SHIFT);
 367:Generated_Source\PSoC6/CapSense_Filter.c **** 
 368:Generated_Source\PSoC6/CapSense_Filter.c ****                         #if (CapSense_PROX_IIR_BL_TYPE == CapSense_IIR_FILTER_PERFORMANCE)
 369:Generated_Source\PSoC6/CapSense_Filter.c ****                                     ptrSensor->bsln[freqChannel] = CY_LO16(history >> 8u);
 370:Generated_Source\PSoC6/CapSense_Filter.c ****                                     ptrSensor->bslnExt[freqChannel] = CY_LO8(history);
 371:Generated_Source\PSoC6/CapSense_Filter.c ****                         #else
 372:Generated_Source\PSoC6/CapSense_Filter.c ****                                     ptrSensor->bsln[freqChannel] = CY_LO16(history);
 373:Generated_Source\PSoC6/CapSense_Filter.c ****                         #endif /* (CapSense_PROX_IIR_BL_TYPE == CapSense_IIR_FILTER_PERFORMANCE) */
 374:Generated_Source\PSoC6/CapSense_Filter.c ****                     #endif /* (CapSense_PROX_SENSOR_EN) */
 375:Generated_Source\PSoC6/CapSense_Filter.c ****                 }
 376:Generated_Source\PSoC6/CapSense_Filter.c ****             #else /* (CapSense_CSD_BASELINE_TYPE == CapSense_IIR_BASELINE) */
 377:Generated_Source\PSoC6/CapSense_Filter.c **** 
 378:Generated_Source\PSoC6/CapSense_Filter.c ****                 /******************************************************************
 379:Generated_Source\PSoC6/CapSense_Filter.c ****                 * This is the place where the bucket algorithm should be implemented.
 380:Generated_Source\PSoC6/CapSense_Filter.c ****                 * The bucket method will be implemented in future Component version.
 381:Generated_Source\PSoC6/CapSense_Filter.c ****                 *******************************************************************/
 382:Generated_Source\PSoC6/CapSense_Filter.c **** 
 383:Generated_Source\PSoC6/CapSense_Filter.c ****             #endif /* (CapSense_CSD_BASELINE_TYPE == CapSense_IIR_BASELINE) */
 384:Generated_Source\PSoC6/CapSense_Filter.c **** 
 385:Generated_Source\PSoC6/CapSense_Filter.c ****             #if (!CapSense_SENSOR_AUTO_RESET_EN)
 386:Generated_Source\PSoC6/CapSense_Filter.c ****                 }
 387:Generated_Source\PSoC6/CapSense_Filter.c ****             #endif /* (!CapSense_SENSOR_AUTO_RESET_EN) */
 388:Generated_Source\PSoC6/CapSense_Filter.c ****         }
 389:Generated_Source\PSoC6/CapSense_Filter.c **** 
 390:Generated_Source\PSoC6/CapSense_Filter.c ****         #if (CapSense_ENABLE == CapSense_TST_BSLN_DUPLICATION_EN)
 391:Generated_Source\PSoC6/CapSense_Filter.c ****             /* Update baseline inversion of every channel in sensor */
 392:Generated_Source\PSoC6/CapSense_Filter.c ****             ptrSensor->bslnInv[freqChannel] = ~(ptrSensor->bsln[freqChannel]);
 393:Generated_Source\PSoC6/CapSense_Filter.c ****             }
 394:Generated_Source\PSoC6/CapSense_Filter.c ****         #endif /* (CapSense_ENABLE == CapSense_TST_BSLN_DUPLICATION_EN) */
 395:Generated_Source\PSoC6/CapSense_Filter.c **** 
 396:Generated_Source\PSoC6/CapSense_Filter.c ****     }
 397:Generated_Source\PSoC6/CapSense_Filter.c ****     return result;
 398:Generated_Source\PSoC6/CapSense_Filter.c **** }
 399:Generated_Source\PSoC6/CapSense_Filter.c **** 
 400:Generated_Source\PSoC6/CapSense_Filter.c **** 
 401:Generated_Source\PSoC6/CapSense_Filter.c **** /*******************************************************************************
 402:Generated_Source\PSoC6/CapSense_Filter.c **** * Function Name: CapSense_InitializeAllBaselines
 403:Generated_Source\PSoC6/CapSense_Filter.c **** ****************************************************************************//**
 404:Generated_Source\PSoC6/CapSense_Filter.c **** *
 405:Generated_Source\PSoC6/CapSense_Filter.c **** * \brief
 406:Generated_Source\PSoC6/CapSense_Filter.c **** *  Initializes (or re-initializes) the baselines of all the sensors of all the widgets.
 407:Generated_Source\PSoC6/CapSense_Filter.c **** *
 408:Generated_Source\PSoC6/CapSense_Filter.c **** * \details
 409:Generated_Source\PSoC6/CapSense_Filter.c **** *  Initializes the baseline for all the sensors of all the widgets. Also, this function
 410:Generated_Source\PSoC6/CapSense_Filter.c **** *  can be used to re-initialize baselines. CapSense_Start() calls this
 411:Generated_Source\PSoC6/CapSense_Filter.c **** *  API as part of CapSense operation initialization.
ARM GAS  C:\Users\DAVIDW~1\AppData\Local\Temp\cc8ZNA3W.s 			page 9


 412:Generated_Source\PSoC6/CapSense_Filter.c **** *  
 413:Generated_Source\PSoC6/CapSense_Filter.c **** *  If any raw count filter is enabled, make sure the raw count filter history is 
 414:Generated_Source\PSoC6/CapSense_Filter.c **** *  initialized as well using one of these functions:
 415:Generated_Source\PSoC6/CapSense_Filter.c **** *  - CapSense_InitializeAllFilters().
 416:Generated_Source\PSoC6/CapSense_Filter.c **** *  - CapSense_InitializeWidgetFilter().
 417:Generated_Source\PSoC6/CapSense_Filter.c **** *
 418:Generated_Source\PSoC6/CapSense_Filter.c **** *******************************************************************************/
 419:Generated_Source\PSoC6/CapSense_Filter.c **** void CapSense_InitializeAllBaselines(void)
 420:Generated_Source\PSoC6/CapSense_Filter.c **** {
 421:Generated_Source\PSoC6/CapSense_Filter.c ****     uint32 widgetId;
 422:Generated_Source\PSoC6/CapSense_Filter.c **** 
 423:Generated_Source\PSoC6/CapSense_Filter.c ****     for(widgetId = CapSense_TOTAL_WIDGETS; widgetId-- > 0u;)
 424:Generated_Source\PSoC6/CapSense_Filter.c ****     {
 425:Generated_Source\PSoC6/CapSense_Filter.c ****         CapSense_InitializeWidgetBaseline(widgetId);
 426:Generated_Source\PSoC6/CapSense_Filter.c ****     }
 427:Generated_Source\PSoC6/CapSense_Filter.c **** }
 428:Generated_Source\PSoC6/CapSense_Filter.c **** 
 429:Generated_Source\PSoC6/CapSense_Filter.c **** 
 430:Generated_Source\PSoC6/CapSense_Filter.c **** /*******************************************************************************
 431:Generated_Source\PSoC6/CapSense_Filter.c **** * Function Name: CapSense_InitializeWidgetBaseline
 432:Generated_Source\PSoC6/CapSense_Filter.c **** ****************************************************************************//**
 433:Generated_Source\PSoC6/CapSense_Filter.c **** *
 434:Generated_Source\PSoC6/CapSense_Filter.c **** * \brief
 435:Generated_Source\PSoC6/CapSense_Filter.c **** *  Initializes (or re-initializes) the baselines of all the sensors in a widget
 436:Generated_Source\PSoC6/CapSense_Filter.c **** *  specified by the input parameter.
 437:Generated_Source\PSoC6/CapSense_Filter.c **** *
 438:Generated_Source\PSoC6/CapSense_Filter.c **** * \details
 439:Generated_Source\PSoC6/CapSense_Filter.c **** *  Initializes (or re-initializes) the baseline for all the sensors of the
 440:Generated_Source\PSoC6/CapSense_Filter.c **** *  specified widget.
 441:Generated_Source\PSoC6/CapSense_Filter.c **** *  
 442:Generated_Source\PSoC6/CapSense_Filter.c **** *  If any raw count filter is enabled, make sure the raw count filter history is 
 443:Generated_Source\PSoC6/CapSense_Filter.c **** *  initialized as well using one of these functions:
 444:Generated_Source\PSoC6/CapSense_Filter.c **** *  - CapSense_InitializeAllFilters().
 445:Generated_Source\PSoC6/CapSense_Filter.c **** *  - CapSense_InitializeWidgetFilter().
 446:Generated_Source\PSoC6/CapSense_Filter.c **** *
 447:Generated_Source\PSoC6/CapSense_Filter.c **** * \param  widgetId
 448:Generated_Source\PSoC6/CapSense_Filter.c **** *  Specifies the ID number of a widget to initialize the baseline of all the sensors
 449:Generated_Source\PSoC6/CapSense_Filter.c **** *  in the widget.
 450:Generated_Source\PSoC6/CapSense_Filter.c **** *  A macro for the widget ID can be found in the
 451:Generated_Source\PSoC6/CapSense_Filter.c **** *  CapSense Configuration header file defined as
 452:Generated_Source\PSoC6/CapSense_Filter.c **** *  CapSense_<WidgetName>_WDGT_ID.
 453:Generated_Source\PSoC6/CapSense_Filter.c **** *
 454:Generated_Source\PSoC6/CapSense_Filter.c **** *******************************************************************************/
 455:Generated_Source\PSoC6/CapSense_Filter.c **** void CapSense_InitializeWidgetBaseline(uint32 widgetId)
 456:Generated_Source\PSoC6/CapSense_Filter.c **** {
 457:Generated_Source\PSoC6/CapSense_Filter.c ****     uint32 sensorId;
 458:Generated_Source\PSoC6/CapSense_Filter.c ****     uint32 sensorsNumber;
 459:Generated_Source\PSoC6/CapSense_Filter.c **** 
 460:Generated_Source\PSoC6/CapSense_Filter.c ****     CapSense_FLASH_WD_STRUCT const *ptrWidget = &CapSense_dsFlash.wdgtArray[widgetId];
 461:Generated_Source\PSoC6/CapSense_Filter.c **** 
 462:Generated_Source\PSoC6/CapSense_Filter.c ****     /* Find total amount of sensors in specified widget */
 463:Generated_Source\PSoC6/CapSense_Filter.c ****     sensorsNumber = CapSense_GET_SNS_CNT_BY_PTR(ptrWidget);
 464:Generated_Source\PSoC6/CapSense_Filter.c **** 
 465:Generated_Source\PSoC6/CapSense_Filter.c ****     for(sensorId = sensorsNumber; sensorId-- > 0u;)
 466:Generated_Source\PSoC6/CapSense_Filter.c ****     {
 467:Generated_Source\PSoC6/CapSense_Filter.c ****         CapSense_InitializeSensorBaseline(widgetId, sensorId);
 468:Generated_Source\PSoC6/CapSense_Filter.c ****     }
ARM GAS  C:\Users\DAVIDW~1\AppData\Local\Temp\cc8ZNA3W.s 			page 10


 469:Generated_Source\PSoC6/CapSense_Filter.c **** }
 470:Generated_Source\PSoC6/CapSense_Filter.c **** 
 471:Generated_Source\PSoC6/CapSense_Filter.c **** 
 472:Generated_Source\PSoC6/CapSense_Filter.c **** /*******************************************************************************
 473:Generated_Source\PSoC6/CapSense_Filter.c **** * Function Name: CapSense_InitializeSensorBaseline
 474:Generated_Source\PSoC6/CapSense_Filter.c **** ****************************************************************************//**
 475:Generated_Source\PSoC6/CapSense_Filter.c **** *
 476:Generated_Source\PSoC6/CapSense_Filter.c **** * \brief
 477:Generated_Source\PSoC6/CapSense_Filter.c **** *  Initializes (or re-initializes) the baseline of a sensor in a widget specified
 478:Generated_Source\PSoC6/CapSense_Filter.c **** *  by the input parameters.
 479:Generated_Source\PSoC6/CapSense_Filter.c **** *
 480:Generated_Source\PSoC6/CapSense_Filter.c **** * \details
 481:Generated_Source\PSoC6/CapSense_Filter.c **** *  Initializes (or re-initializes) the baseline for a specified sensor within
 482:Generated_Source\PSoC6/CapSense_Filter.c **** *  a specified widget.
 483:Generated_Source\PSoC6/CapSense_Filter.c **** *
 484:Generated_Source\PSoC6/CapSense_Filter.c **** * \param    widgetId
 485:Generated_Source\PSoC6/CapSense_Filter.c **** *  Specifies the ID number of a widget to initialize the baseline of the sensor
 486:Generated_Source\PSoC6/CapSense_Filter.c **** *  in the widget.
 487:Generated_Source\PSoC6/CapSense_Filter.c **** *  A macro for the widget ID can be found in the
 488:Generated_Source\PSoC6/CapSense_Filter.c **** *  CapSense Configuration header file defined as
 489:Generated_Source\PSoC6/CapSense_Filter.c **** *  CapSense_<WidgetName>_WDGT_ID.
 490:Generated_Source\PSoC6/CapSense_Filter.c **** *
 491:Generated_Source\PSoC6/CapSense_Filter.c **** * \param    sensorId
 492:Generated_Source\PSoC6/CapSense_Filter.c **** *  Specifies the ID number of the sensor within the widget to initialize its
 493:Generated_Source\PSoC6/CapSense_Filter.c **** *  baseline.
 494:Generated_Source\PSoC6/CapSense_Filter.c **** *  A macro for the sensor ID within a specified widget can be found in the
 495:Generated_Source\PSoC6/CapSense_Filter.c **** *  CapSense Configuration header file defined as
 496:Generated_Source\PSoC6/CapSense_Filter.c **** *  CapSense_<WidgetName>_SNS<SensorNumber>_ID.
 497:Generated_Source\PSoC6/CapSense_Filter.c **** *
 498:Generated_Source\PSoC6/CapSense_Filter.c **** *******************************************************************************/
 499:Generated_Source\PSoC6/CapSense_Filter.c **** void CapSense_InitializeSensorBaseline(uint32 widgetId, uint32 sensorId)
 500:Generated_Source\PSoC6/CapSense_Filter.c **** {
 501:Generated_Source\PSoC6/CapSense_Filter.c ****     CapSense_RAM_SNS_STRUCT *ptrSensor = NULL;
 502:Generated_Source\PSoC6/CapSense_Filter.c ****     CapSense_FLASH_WD_STRUCT const *ptrWidget = NULL;
 503:Generated_Source\PSoC6/CapSense_Filter.c ****     ptrWidget = &CapSense_dsFlash.wdgtArray[widgetId];
 504:Generated_Source\PSoC6/CapSense_Filter.c **** 
 505:Generated_Source\PSoC6/CapSense_Filter.c ****     /* Find pointer to specified sensor object */
 506:Generated_Source\PSoC6/CapSense_Filter.c ****     ptrSensor = ptrWidget->ptr2SnsRam;
 507:Generated_Source\PSoC6/CapSense_Filter.c ****     ptrSensor = &ptrSensor[sensorId];
 508:Generated_Source\PSoC6/CapSense_Filter.c **** 
 509:Generated_Source\PSoC6/CapSense_Filter.c ****     CapSense_FtInitializeBaseline(ptrSensor, (uint32)ptrWidget->wdgtType);
 510:Generated_Source\PSoC6/CapSense_Filter.c **** }
 511:Generated_Source\PSoC6/CapSense_Filter.c **** 
 512:Generated_Source\PSoC6/CapSense_Filter.c **** 
 513:Generated_Source\PSoC6/CapSense_Filter.c **** /*******************************************************************************
 514:Generated_Source\PSoC6/CapSense_Filter.c **** * Function Name: CapSense_FtInitializeBaseline
 515:Generated_Source\PSoC6/CapSense_Filter.c **** ****************************************************************************//**
 516:Generated_Source\PSoC6/CapSense_Filter.c **** *
 517:Generated_Source\PSoC6/CapSense_Filter.c **** * \brief    Initializes the baseline history for a sensor indicated by an input
 518:Generated_Source\PSoC6/CapSense_Filter.c **** *           parameter.
 519:Generated_Source\PSoC6/CapSense_Filter.c **** *
 520:Generated_Source\PSoC6/CapSense_Filter.c **** * \details  Initializes the baseline history for a sensor indicated by an input
 521:Generated_Source\PSoC6/CapSense_Filter.c **** *           parameter.
 522:Generated_Source\PSoC6/CapSense_Filter.c **** *
 523:Generated_Source\PSoC6/CapSense_Filter.c **** * \param    *ptrSensor The pointer to the sensor RAM object.
 524:Generated_Source\PSoC6/CapSense_Filter.c **** * \param    wdType     Specifies the type of a widget.
 525:Generated_Source\PSoC6/CapSense_Filter.c **** *
ARM GAS  C:\Users\DAVIDW~1\AppData\Local\Temp\cc8ZNA3W.s 			page 11


 526:Generated_Source\PSoC6/CapSense_Filter.c **** *******************************************************************************/
 527:Generated_Source\PSoC6/CapSense_Filter.c **** void CapSense_FtInitializeBaseline(CapSense_RAM_SNS_STRUCT *ptrSensor, uint32 wdType)
 528:Generated_Source\PSoC6/CapSense_Filter.c **** {
 529:Generated_Source\PSoC6/CapSense_Filter.c ****     uint32 freqChannel;
 530:Generated_Source\PSoC6/CapSense_Filter.c **** 
 531:Generated_Source\PSoC6/CapSense_Filter.c ****     /* Apply baseline initialization to every channel in sensor */
 532:Generated_Source\PSoC6/CapSense_Filter.c ****     for(freqChannel = CapSense_NUM_SCAN_FREQS; freqChannel-- > 0u;)
 533:Generated_Source\PSoC6/CapSense_Filter.c ****     {
 534:Generated_Source\PSoC6/CapSense_Filter.c ****         CapSense_FtInitializeBaselineChannel(ptrSensor, wdType, freqChannel);
 535:Generated_Source\PSoC6/CapSense_Filter.c ****     }
 536:Generated_Source\PSoC6/CapSense_Filter.c **** }
 537:Generated_Source\PSoC6/CapSense_Filter.c **** 
 538:Generated_Source\PSoC6/CapSense_Filter.c **** 
 539:Generated_Source\PSoC6/CapSense_Filter.c **** /*******************************************************************************
 540:Generated_Source\PSoC6/CapSense_Filter.c **** * Function Name: CapSense_FtInitializeBaselineChannel
 541:Generated_Source\PSoC6/CapSense_Filter.c **** ****************************************************************************//**
 542:Generated_Source\PSoC6/CapSense_Filter.c **** *
 543:Generated_Source\PSoC6/CapSense_Filter.c **** * \brief    Initializes the baseline history for a sensor indicated by an input
 544:Generated_Source\PSoC6/CapSense_Filter.c **** *           parameter.
 545:Generated_Source\PSoC6/CapSense_Filter.c **** *
 546:Generated_Source\PSoC6/CapSense_Filter.c **** * \details  Initializes the baseline history for a sensor indicated by an input
 547:Generated_Source\PSoC6/CapSense_Filter.c **** *           parameter.
 548:Generated_Source\PSoC6/CapSense_Filter.c **** *
 549:Generated_Source\PSoC6/CapSense_Filter.c **** * \param    *ptrSensor The pointer to the sensor RAM object.
 550:Generated_Source\PSoC6/CapSense_Filter.c **** * \param    wdType     Specifies the type of a widget.
 551:Generated_Source\PSoC6/CapSense_Filter.c **** * \param    channel    Specifies the number of the channel to be initialized.
 552:Generated_Source\PSoC6/CapSense_Filter.c **** *
 553:Generated_Source\PSoC6/CapSense_Filter.c **** *******************************************************************************/
 554:Generated_Source\PSoC6/CapSense_Filter.c **** void CapSense_FtInitializeBaselineChannel(CapSense_RAM_SNS_STRUCT *ptrSensor, uint32 wdType, uint32
 555:Generated_Source\PSoC6/CapSense_Filter.c **** {
  46              		.loc 1 555 0
  47              		.cfi_startproc
  48              		@ args = 0, pretend = 0, frame = 0
  49              		@ frame_needed = 0, uses_anonymous_args = 0
  50              		@ link register save eliminated.
  51              	.LVL0:
 556:Generated_Source\PSoC6/CapSense_Filter.c ****     #if (CapSense_BASELINE_TYPE == CapSense_IIR_BASELINE)
 557:Generated_Source\PSoC6/CapSense_Filter.c ****         if ((CapSense_WD_TYPE_ENUM)wdType != CapSense_WD_PROXIMITY_E)
  52              		.loc 1 557 0
  53 0000 C9B2     		uxtb	r1, r1
  54              	.LVL1:
  55 0002 0629     		cmp	r1, #6
  56 0004 03D0     		beq	.L3
 558:Generated_Source\PSoC6/CapSense_Filter.c ****         {
 559:Generated_Source\PSoC6/CapSense_Filter.c ****             #if (CapSense_REGULAR_SENSOR_EN)
 560:Generated_Source\PSoC6/CapSense_Filter.c ****                 #if (CapSense_REGULAR_IIR_BL_TYPE == CapSense_IIR_FILTER_PERFORMANCE)
 561:Generated_Source\PSoC6/CapSense_Filter.c ****                     ptrSensor->bslnExt[channel] = 0u;
  57              		.loc 1 561 0
  58 0006 8318     		adds	r3, r0, r2
  59 0008 0021     		movs	r1, #0
  60 000a 1971     		strb	r1, [r3, #4]
  61 000c 02E0     		b	.L4
  62              	.L3:
 562:Generated_Source\PSoC6/CapSense_Filter.c ****                 #endif /* (CapSense_REGULAR_IIR_BL_TYPE == CapSense_IIR_FILTER_PERFORMANCE) */
 563:Generated_Source\PSoC6/CapSense_Filter.c ****             #endif /* (CapSense_REGULAR_SENSOR_EN) */
 564:Generated_Source\PSoC6/CapSense_Filter.c ****         }
 565:Generated_Source\PSoC6/CapSense_Filter.c ****         else
ARM GAS  C:\Users\DAVIDW~1\AppData\Local\Temp\cc8ZNA3W.s 			page 12


 566:Generated_Source\PSoC6/CapSense_Filter.c ****         {
 567:Generated_Source\PSoC6/CapSense_Filter.c ****             #if (CapSense_PROXIMITY_SENSOR_EN)
 568:Generated_Source\PSoC6/CapSense_Filter.c ****                 #if (CapSense_PROX_IIR_BL_TYPE == CapSense_IIR_FILTER_PERFORMANCE)
 569:Generated_Source\PSoC6/CapSense_Filter.c ****                     ptrSensor->bslnExt[channel] = 0u;
  63              		.loc 1 569 0
  64 000e 8318     		adds	r3, r0, r2
  65 0010 0021     		movs	r1, #0
  66 0012 1971     		strb	r1, [r3, #4]
  67              	.L4:
 570:Generated_Source\PSoC6/CapSense_Filter.c ****                 #endif /* (CapSense_PROX_IIR_BL_TYPE == CapSense_IIR_FILTER_PERFORMANCE) */
 571:Generated_Source\PSoC6/CapSense_Filter.c ****             #endif /* (CapSense_PROX_SENSOR_EN) */
 572:Generated_Source\PSoC6/CapSense_Filter.c ****         }
 573:Generated_Source\PSoC6/CapSense_Filter.c ****     #else
 574:Generated_Source\PSoC6/CapSense_Filter.c ****         /* CapSense_BASELINE_TYPE == CapSense_BUCKET_BASELINE */
 575:Generated_Source\PSoC6/CapSense_Filter.c ****         ptrSensor->bslnExt[channel] = 0u;
 576:Generated_Source\PSoC6/CapSense_Filter.c ****     #endif /* (CapSense_BASELINE_TYPE == CapSense_IIR_BASELINE) */
 577:Generated_Source\PSoC6/CapSense_Filter.c **** 
 578:Generated_Source\PSoC6/CapSense_Filter.c ****     ptrSensor->bsln[channel] = ptrSensor->raw[channel];
  68              		.loc 1 578 0
  69 0014 30F81210 		ldrh	r1, [r0, r2, lsl #1]
  70 0018 00EB4203 		add	r3, r0, r2, lsl #1
  71 001c 5980     		strh	r1, [r3, #2]	@ movhi
 579:Generated_Source\PSoC6/CapSense_Filter.c **** 
 580:Generated_Source\PSoC6/CapSense_Filter.c ****     #if (CapSense_ENABLE == CapSense_TST_BSLN_DUPLICATION_EN)
 581:Generated_Source\PSoC6/CapSense_Filter.c ****     /* Update baseline inversion of the channel in sensor */
 582:Generated_Source\PSoC6/CapSense_Filter.c ****         ptrSensor->bslnInv[channel] = ~(ptrSensor->bsln[channel]);
 583:Generated_Source\PSoC6/CapSense_Filter.c ****     #endif /* (CapSense_ENABLE == CapSense_TST_BSLN_DUPLICATION_EN) */
 584:Generated_Source\PSoC6/CapSense_Filter.c **** 
 585:Generated_Source\PSoC6/CapSense_Filter.c ****     ptrSensor->negBslnRstCnt[channel] = 0u;
  72              		.loc 1 585 0
  73 001e 0244     		add	r2, r2, r0
  74              	.LVL2:
  75 0020 0023     		movs	r3, #0
  76 0022 1372     		strb	r3, [r2, #8]
  77 0024 7047     		bx	lr
  78              		.cfi_endproc
  79              	.LFE134:
  80              		.size	CapSense_FtInitializeBaselineChannel, .-CapSense_FtInitializeBaselineChannel
  81 0026 00BF     		.section	.text.CapSense_FtInitializeBaseline,"ax",%progbits
  82              		.align	2
  83              		.global	CapSense_FtInitializeBaseline
  84              		.thumb
  85              		.thumb_func
  86              		.type	CapSense_FtInitializeBaseline, %function
  87              	CapSense_FtInitializeBaseline:
  88              	.LFB133:
 528:Generated_Source\PSoC6/CapSense_Filter.c ****     uint32 freqChannel;
  89              		.loc 1 528 0
  90              		.cfi_startproc
  91              		@ args = 0, pretend = 0, frame = 0
  92              		@ frame_needed = 0, uses_anonymous_args = 0
  93              	.LVL3:
  94 0000 70B5     		push	{r4, r5, r6, lr}
  95              		.cfi_def_cfa_offset 16
  96              		.cfi_offset 4, -16
  97              		.cfi_offset 5, -12
  98              		.cfi_offset 6, -8
ARM GAS  C:\Users\DAVIDW~1\AppData\Local\Temp\cc8ZNA3W.s 			page 13


  99              		.cfi_offset 14, -4
 100 0002 0646     		mov	r6, r0
 101 0004 0D46     		mov	r5, r1
 102              	.LVL4:
 532:Generated_Source\PSoC6/CapSense_Filter.c ****     {
 103              		.loc 1 532 0
 104 0006 0123     		movs	r3, #1
 105 0008 05E0     		b	.L6
 106              	.LVL5:
 107              	.L7:
 534:Generated_Source\PSoC6/CapSense_Filter.c ****     }
 108              		.loc 1 534 0
 109 000a 2246     		mov	r2, r4
 110 000c 2946     		mov	r1, r5
 111 000e 3046     		mov	r0, r6
 112 0010 FFF7FEFF 		bl	CapSense_FtInitializeBaselineChannel
 113              	.LVL6:
 532:Generated_Source\PSoC6/CapSense_Filter.c ****     {
 114              		.loc 1 532 0
 115 0014 2346     		mov	r3, r4
 116              	.LVL7:
 117              	.L6:
 532:Generated_Source\PSoC6/CapSense_Filter.c ****     {
 118              		.loc 1 532 0 is_stmt 0 discriminator 1
 119 0016 5C1E     		subs	r4, r3, #1
 120              	.LVL8:
 121 0018 002B     		cmp	r3, #0
 122 001a F6D1     		bne	.L7
 536:Generated_Source\PSoC6/CapSense_Filter.c **** 
 123              		.loc 1 536 0 is_stmt 1
 124 001c 70BD     		pop	{r4, r5, r6, pc}
 125              		.cfi_endproc
 126              	.LFE133:
 127              		.size	CapSense_FtInitializeBaseline, .-CapSense_FtInitializeBaseline
 128 001e 00BF     		.section	.text.CapSense_InitializeSensorBaseline,"ax",%progbits
 129              		.align	2
 130              		.global	CapSense_InitializeSensorBaseline
 131              		.thumb
 132              		.thumb_func
 133              		.type	CapSense_InitializeSensorBaseline, %function
 134              	CapSense_InitializeSensorBaseline:
 135              	.LFB132:
 500:Generated_Source\PSoC6/CapSense_Filter.c ****     CapSense_RAM_SNS_STRUCT *ptrSensor = NULL;
 136              		.loc 1 500 0
 137              		.cfi_startproc
 138              		@ args = 0, pretend = 0, frame = 0
 139              		@ frame_needed = 0, uses_anonymous_args = 0
 140              	.LVL9:
 141 0000 70B5     		push	{r4, r5, r6, lr}
 142              		.cfi_def_cfa_offset 16
 143              		.cfi_offset 4, -16
 144              		.cfi_offset 5, -12
 145              		.cfi_offset 6, -8
 146              		.cfi_offset 14, -4
 147              	.LVL10:
 506:Generated_Source\PSoC6/CapSense_Filter.c ****     ptrSensor = &ptrSensor[sensorId];
 148              		.loc 1 506 0
ARM GAS  C:\Users\DAVIDW~1\AppData\Local\Temp\cc8ZNA3W.s 			page 14


 149 0002 084D     		ldr	r5, .L11
 150 0004 C300     		lsls	r3, r0, #3
 151 0006 1A1A     		subs	r2, r3, r0
 152 0008 9400     		lsls	r4, r2, #2
 153 000a 2246     		mov	r2, r4
 154 000c 2C44     		add	r4, r4, r5
 155 000e A668     		ldr	r6, [r4, #8]
 156              	.LVL11:
 507:Generated_Source\PSoC6/CapSense_Filter.c **** 
 157              		.loc 1 507 0
 158 0010 01EB8101 		add	r1, r1, r1, lsl #2
 159              	.LVL12:
 160 0014 4C00     		lsls	r4, r1, #1
 161              	.LVL13:
 509:Generated_Source\PSoC6/CapSense_Filter.c **** }
 162              		.loc 1 509 0
 163 0016 2A44     		add	r2, r2, r5
 164 0018 917E     		ldrb	r1, [r2, #26]	@ zero_extendqisi2
 165 001a 3019     		adds	r0, r6, r4
 166              	.LVL14:
 167 001c FFF7FEFF 		bl	CapSense_FtInitializeBaseline
 168              	.LVL15:
 169 0020 70BD     		pop	{r4, r5, r6, pc}
 170              	.LVL16:
 171              	.L12:
 172 0022 00BF     		.align	2
 173              	.L11:
 174 0024 00000000 		.word	CapSense_dsFlash
 175              		.cfi_endproc
 176              	.LFE132:
 177              		.size	CapSense_InitializeSensorBaseline, .-CapSense_InitializeSensorBaseline
 178              		.section	.text.CapSense_InitializeWidgetBaseline,"ax",%progbits
 179              		.align	2
 180              		.global	CapSense_InitializeWidgetBaseline
 181              		.thumb
 182              		.thumb_func
 183              		.type	CapSense_InitializeWidgetBaseline, %function
 184              	CapSense_InitializeWidgetBaseline:
 185              	.LFB131:
 456:Generated_Source\PSoC6/CapSense_Filter.c ****     uint32 sensorId;
 186              		.loc 1 456 0
 187              		.cfi_startproc
 188              		@ args = 0, pretend = 0, frame = 0
 189              		@ frame_needed = 0, uses_anonymous_args = 0
 190              	.LVL17:
 191 0000 38B5     		push	{r3, r4, r5, lr}
 192              		.cfi_def_cfa_offset 16
 193              		.cfi_offset 3, -16
 194              		.cfi_offset 4, -12
 195              		.cfi_offset 5, -8
 196              		.cfi_offset 14, -4
 197 0002 0546     		mov	r5, r0
 198              	.LVL18:
 463:Generated_Source\PSoC6/CapSense_Filter.c **** 
 199              		.loc 1 463 0
 200 0004 C0EBC002 		rsb	r2, r0, r0, lsl #3
 201 0008 9300     		lsls	r3, r2, #2
ARM GAS  C:\Users\DAVIDW~1\AppData\Local\Temp\cc8ZNA3W.s 			page 15


 202 000a 064A     		ldr	r2, .L17
 203 000c 1344     		add	r3, r3, r2
 204 000e 1B8B     		ldrh	r3, [r3, #24]
 205              	.LVL19:
 465:Generated_Source\PSoC6/CapSense_Filter.c ****     {
 206              		.loc 1 465 0
 207 0010 04E0     		b	.L14
 208              	.LVL20:
 209              	.L15:
 467:Generated_Source\PSoC6/CapSense_Filter.c ****     }
 210              		.loc 1 467 0
 211 0012 2146     		mov	r1, r4
 212 0014 2846     		mov	r0, r5
 213 0016 FFF7FEFF 		bl	CapSense_InitializeSensorBaseline
 214              	.LVL21:
 465:Generated_Source\PSoC6/CapSense_Filter.c ****     {
 215              		.loc 1 465 0
 216 001a 2346     		mov	r3, r4
 217              	.LVL22:
 218              	.L14:
 465:Generated_Source\PSoC6/CapSense_Filter.c ****     {
 219              		.loc 1 465 0 is_stmt 0 discriminator 1
 220 001c 5C1E     		subs	r4, r3, #1
 221              	.LVL23:
 222 001e 002B     		cmp	r3, #0
 223 0020 F7D1     		bne	.L15
 469:Generated_Source\PSoC6/CapSense_Filter.c **** 
 224              		.loc 1 469 0 is_stmt 1
 225 0022 38BD     		pop	{r3, r4, r5, pc}
 226              	.LVL24:
 227              	.L18:
 228              		.align	2
 229              	.L17:
 230 0024 00000000 		.word	CapSense_dsFlash
 231              		.cfi_endproc
 232              	.LFE131:
 233              		.size	CapSense_InitializeWidgetBaseline, .-CapSense_InitializeWidgetBaseline
 234              		.section	.text.CapSense_InitializeAllBaselines,"ax",%progbits
 235              		.align	2
 236              		.global	CapSense_InitializeAllBaselines
 237              		.thumb
 238              		.thumb_func
 239              		.type	CapSense_InitializeAllBaselines, %function
 240              	CapSense_InitializeAllBaselines:
 241              	.LFB130:
 420:Generated_Source\PSoC6/CapSense_Filter.c ****     uint32 widgetId;
 242              		.loc 1 420 0
 243              		.cfi_startproc
 244              		@ args = 0, pretend = 0, frame = 0
 245              		@ frame_needed = 0, uses_anonymous_args = 0
 246 0000 10B5     		push	{r4, lr}
 247              		.cfi_def_cfa_offset 8
 248              		.cfi_offset 4, -8
 249              		.cfi_offset 14, -4
 250              	.LVL25:
 423:Generated_Source\PSoC6/CapSense_Filter.c ****     {
 251              		.loc 1 423 0
ARM GAS  C:\Users\DAVIDW~1\AppData\Local\Temp\cc8ZNA3W.s 			page 16


 252 0002 0323     		movs	r3, #3
 253 0004 03E0     		b	.L20
 254              	.LVL26:
 255              	.L21:
 425:Generated_Source\PSoC6/CapSense_Filter.c ****     }
 256              		.loc 1 425 0
 257 0006 2046     		mov	r0, r4
 258 0008 FFF7FEFF 		bl	CapSense_InitializeWidgetBaseline
 259              	.LVL27:
 423:Generated_Source\PSoC6/CapSense_Filter.c ****     {
 260              		.loc 1 423 0
 261 000c 2346     		mov	r3, r4
 262              	.LVL28:
 263              	.L20:
 423:Generated_Source\PSoC6/CapSense_Filter.c ****     {
 264              		.loc 1 423 0 is_stmt 0 discriminator 1
 265 000e 5C1E     		subs	r4, r3, #1
 266              	.LVL29:
 267 0010 002B     		cmp	r3, #0
 268 0012 F8D1     		bne	.L21
 427:Generated_Source\PSoC6/CapSense_Filter.c **** 
 269              		.loc 1 427 0 is_stmt 1
 270 0014 10BD     		pop	{r4, pc}
 271              		.cfi_endproc
 272              	.LFE130:
 273              		.size	CapSense_InitializeAllBaselines, .-CapSense_InitializeAllBaselines
 274 0016 00BF     		.section	.text.CapSense_FtIIR1stOrder,"ax",%progbits
 275              		.align	2
 276              		.global	CapSense_FtIIR1stOrder
 277              		.thumb
 278              		.thumb_func
 279              		.type	CapSense_FtIIR1stOrder, %function
 280              	CapSense_FtIIR1stOrder:
 281              	.LFB135:
 586:Generated_Source\PSoC6/CapSense_Filter.c **** }
 587:Generated_Source\PSoC6/CapSense_Filter.c **** 
 588:Generated_Source\PSoC6/CapSense_Filter.c **** #if ((CapSense_ENABLE == CapSense_RC_FILTER_EN) || \
 589:Generated_Source\PSoC6/CapSense_Filter.c ****      (0u != (CapSense_CSD_AUTOTUNE & CapSense_CSD_SS_TH_EN)))
 590:Generated_Source\PSoC6/CapSense_Filter.c **** /*******************************************************************************
 591:Generated_Source\PSoC6/CapSense_Filter.c **** * Function Name: CapSense_InitializeAllFilters
 592:Generated_Source\PSoC6/CapSense_Filter.c **** ****************************************************************************//**
 593:Generated_Source\PSoC6/CapSense_Filter.c **** *
 594:Generated_Source\PSoC6/CapSense_Filter.c **** * \brief
 595:Generated_Source\PSoC6/CapSense_Filter.c **** *  Initializes (or re-initializes) the raw count filter history of all the 
 596:Generated_Source\PSoC6/CapSense_Filter.c **** *  sensors of all the widgets.
 597:Generated_Source\PSoC6/CapSense_Filter.c **** *
 598:Generated_Source\PSoC6/CapSense_Filter.c **** * \details
 599:Generated_Source\PSoC6/CapSense_Filter.c **** *  Initializes the raw count filter history for all the sensors of all the 
 600:Generated_Source\PSoC6/CapSense_Filter.c **** *  widgets. Also, this function can be used to re-initialize baselines. 
 601:Generated_Source\PSoC6/CapSense_Filter.c **** *  CapSense_Start() calls this API as part of CapSense 
 602:Generated_Source\PSoC6/CapSense_Filter.c **** *  operation initialization.
 603:Generated_Source\PSoC6/CapSense_Filter.c **** *
 604:Generated_Source\PSoC6/CapSense_Filter.c **** *******************************************************************************/
 605:Generated_Source\PSoC6/CapSense_Filter.c **** void CapSense_InitializeAllFilters(void)
 606:Generated_Source\PSoC6/CapSense_Filter.c **** {
 607:Generated_Source\PSoC6/CapSense_Filter.c ****     uint32 widgetId;
 608:Generated_Source\PSoC6/CapSense_Filter.c **** 
ARM GAS  C:\Users\DAVIDW~1\AppData\Local\Temp\cc8ZNA3W.s 			page 17


 609:Generated_Source\PSoC6/CapSense_Filter.c ****     for(widgetId = CapSense_TOTAL_WIDGETS; widgetId-- > 0u;)
 610:Generated_Source\PSoC6/CapSense_Filter.c ****     {
 611:Generated_Source\PSoC6/CapSense_Filter.c ****         CapSense_InitializeWidgetFilter(widgetId);
 612:Generated_Source\PSoC6/CapSense_Filter.c ****     }
 613:Generated_Source\PSoC6/CapSense_Filter.c **** }
 614:Generated_Source\PSoC6/CapSense_Filter.c **** 
 615:Generated_Source\PSoC6/CapSense_Filter.c **** /*******************************************************************************
 616:Generated_Source\PSoC6/CapSense_Filter.c **** * Function Name: CapSense_InitializeWidgetFilter
 617:Generated_Source\PSoC6/CapSense_Filter.c **** ****************************************************************************//**
 618:Generated_Source\PSoC6/CapSense_Filter.c **** *
 619:Generated_Source\PSoC6/CapSense_Filter.c **** * \brief
 620:Generated_Source\PSoC6/CapSense_Filter.c **** *  Initializes (or re-initializes) the raw count filter history of all the sensors 
 621:Generated_Source\PSoC6/CapSense_Filter.c **** *  in a widget specified by the input parameter.
 622:Generated_Source\PSoC6/CapSense_Filter.c **** *
 623:Generated_Source\PSoC6/CapSense_Filter.c **** * \details
 624:Generated_Source\PSoC6/CapSense_Filter.c **** *  Initializes (or re-initializes) the raw count filter history of all the sensors 
 625:Generated_Source\PSoC6/CapSense_Filter.c **** *  in a widget specified by the input parameter.
 626:Generated_Source\PSoC6/CapSense_Filter.c **** *
 627:Generated_Source\PSoC6/CapSense_Filter.c **** * \param  widgetId
 628:Generated_Source\PSoC6/CapSense_Filter.c **** *  Specifies the ID number of a widget to initialize the filter history of all 
 629:Generated_Source\PSoC6/CapSense_Filter.c **** *  the sensors in the widget.
 630:Generated_Source\PSoC6/CapSense_Filter.c **** *  A macro for the widget ID can be found in the
 631:Generated_Source\PSoC6/CapSense_Filter.c **** *  CapSense Configuration header file defined as
 632:Generated_Source\PSoC6/CapSense_Filter.c **** *  CapSense_<WidgetName>_WDGT_ID.
 633:Generated_Source\PSoC6/CapSense_Filter.c **** *
 634:Generated_Source\PSoC6/CapSense_Filter.c **** *******************************************************************************/
 635:Generated_Source\PSoC6/CapSense_Filter.c **** void CapSense_InitializeWidgetFilter(uint32 widgetId)
 636:Generated_Source\PSoC6/CapSense_Filter.c **** {
 637:Generated_Source\PSoC6/CapSense_Filter.c ****     uint32 sensorId;
 638:Generated_Source\PSoC6/CapSense_Filter.c ****     uint32 sensorsNumber;
 639:Generated_Source\PSoC6/CapSense_Filter.c **** 
 640:Generated_Source\PSoC6/CapSense_Filter.c ****     CapSense_FLASH_WD_STRUCT const *ptrWidget;
 641:Generated_Source\PSoC6/CapSense_Filter.c ****     CapSense_RAM_SNS_STRUCT *ptrSensor = NULL;
 642:Generated_Source\PSoC6/CapSense_Filter.c ****     #if (CapSense_ENABLE == CapSense_RC_FILTER_EN)
 643:Generated_Source\PSoC6/CapSense_Filter.c ****         CapSense_PTR_FILTER_VARIANT ptrFilterHistObj;
 644:Generated_Source\PSoC6/CapSense_Filter.c ****     #endif
 645:Generated_Source\PSoC6/CapSense_Filter.c ****     
 646:Generated_Source\PSoC6/CapSense_Filter.c ****     #if (0u != (CapSense_CSD_AUTOTUNE & CapSense_CSD_SS_TH_EN))
 647:Generated_Source\PSoC6/CapSense_Filter.c ****         CapSense_RAM_WD_BASE_STRUCT *ptrWidgetRam;
 648:Generated_Source\PSoC6/CapSense_Filter.c ****         SMARTSENSE_CSD_NOISE_ENVELOPE_STRUCT *ptrNoiseEnvelope = NULL;
 649:Generated_Source\PSoC6/CapSense_Filter.c ****     #endif /* (0u != (CapSense_CSD_AUTOTUNE & CapSense_CSD_SS_TH_EN)) */
 650:Generated_Source\PSoC6/CapSense_Filter.c **** 
 651:Generated_Source\PSoC6/CapSense_Filter.c ****     ptrWidget = &CapSense_dsFlash.wdgtArray[widgetId];
 652:Generated_Source\PSoC6/CapSense_Filter.c **** 
 653:Generated_Source\PSoC6/CapSense_Filter.c ****     #if (0u != (CapSense_CSD_AUTOTUNE & CapSense_CSD_SS_TH_EN))
 654:Generated_Source\PSoC6/CapSense_Filter.c ****         ptrWidgetRam = ptrWidget->ptr2WdgtRam;
 655:Generated_Source\PSoC6/CapSense_Filter.c ****     #endif /* (0u != (CapSense_CSD_AUTOTUNE & CapSense_CSD_SS_TH_EN)) */
 656:Generated_Source\PSoC6/CapSense_Filter.c **** 
 657:Generated_Source\PSoC6/CapSense_Filter.c ****     /* Find total amount of sensors in specified widget */
 658:Generated_Source\PSoC6/CapSense_Filter.c ****     sensorsNumber = CapSense_GET_SNS_CNT_BY_PTR(ptrWidget);
 659:Generated_Source\PSoC6/CapSense_Filter.c **** 
 660:Generated_Source\PSoC6/CapSense_Filter.c ****     for (sensorId = sensorsNumber; sensorId-- > 0u;)
 661:Generated_Source\PSoC6/CapSense_Filter.c ****     {
 662:Generated_Source\PSoC6/CapSense_Filter.c ****         /* Find pointer to specified sensor object */
 663:Generated_Source\PSoC6/CapSense_Filter.c ****         ptrSensor = ptrWidget->ptr2SnsRam;
 664:Generated_Source\PSoC6/CapSense_Filter.c ****         ptrSensor = &ptrSensor[sensorId];
 665:Generated_Source\PSoC6/CapSense_Filter.c **** 
ARM GAS  C:\Users\DAVIDW~1\AppData\Local\Temp\cc8ZNA3W.s 			page 18


 666:Generated_Source\PSoC6/CapSense_Filter.c ****         #if (CapSense_ENABLE == CapSense_RC_FILTER_EN)
 667:Generated_Source\PSoC6/CapSense_Filter.c ****             /* Find pointer to to specified filter sensor object */
 668:Generated_Source\PSoC6/CapSense_Filter.c ****             ptrFilterHistObj.ptr = ptrWidget->ptr2FltrHistory;
 669:Generated_Source\PSoC6/CapSense_Filter.c ****         #endif
 670:Generated_Source\PSoC6/CapSense_Filter.c **** 
 671:Generated_Source\PSoC6/CapSense_Filter.c ****         #if (0u != (CapSense_CSD_AUTOTUNE & CapSense_CSD_SS_TH_EN))
 672:Generated_Source\PSoC6/CapSense_Filter.c ****             /* Find pointer to specified noise envelope sensor object */
 673:Generated_Source\PSoC6/CapSense_Filter.c ****             ptrNoiseEnvelope = ptrWidget->ptr2NoiseEnvlp;
 674:Generated_Source\PSoC6/CapSense_Filter.c ****             ptrNoiseEnvelope = &ptrNoiseEnvelope[sensorId];
 675:Generated_Source\PSoC6/CapSense_Filter.c ****         #endif /* (0u != (CapSense_CSD_AUTOTUNE & CapSense_CSD_SS_TH_EN)) */
 676:Generated_Source\PSoC6/CapSense_Filter.c **** 
 677:Generated_Source\PSoC6/CapSense_Filter.c ****         if ((CapSense_WD_TYPE_ENUM)ptrWidget->wdgtType != CapSense_WD_PROXIMITY_E)
 678:Generated_Source\PSoC6/CapSense_Filter.c ****         {
 679:Generated_Source\PSoC6/CapSense_Filter.c ****             #if (0u != CapSense_REGULAR_RC_ALP_FILTER_EN)
 680:Generated_Source\PSoC6/CapSense_Filter.c ****                 ptrFilterHistObj.ptrAlp = &ptrFilterHistObj.ptrAlp[sensorId];
 681:Generated_Source\PSoC6/CapSense_Filter.c ****             #elif (0u != CapSense_REGULAR_RC_FILTER_EN)
 682:Generated_Source\PSoC6/CapSense_Filter.c ****                 ptrFilterHistObj.ptrRegular = &ptrFilterHistObj.ptrRegular[sensorId];
 683:Generated_Source\PSoC6/CapSense_Filter.c ****             #endif
 684:Generated_Source\PSoC6/CapSense_Filter.c ****         }
 685:Generated_Source\PSoC6/CapSense_Filter.c ****         else
 686:Generated_Source\PSoC6/CapSense_Filter.c ****         {
 687:Generated_Source\PSoC6/CapSense_Filter.c ****             #if (0u != CapSense_PROX_RC_ALP_FILTER_EN)
 688:Generated_Source\PSoC6/CapSense_Filter.c ****                 ptrFilterHistObj.ptrAlp = &ptrFilterHistObj.ptrAlp[sensorId];
 689:Generated_Source\PSoC6/CapSense_Filter.c ****             #elif (0u != CapSense_PROX_RC_FILTER_EN)
 690:Generated_Source\PSoC6/CapSense_Filter.c ****                 ptrFilterHistObj.ptrProx = &ptrFilterHistObj.ptrProx[sensorId];
 691:Generated_Source\PSoC6/CapSense_Filter.c ****             #endif /* #if (0u != CapSense_PROX_RC_FILTER_EN) */
 692:Generated_Source\PSoC6/CapSense_Filter.c ****         }
 693:Generated_Source\PSoC6/CapSense_Filter.c **** 
 694:Generated_Source\PSoC6/CapSense_Filter.c ****         #if (CapSense_REGULAR_RC_IIR_FILTER_EN || CapSense_PROX_RC_IIR_FILTER_EN)
 695:Generated_Source\PSoC6/CapSense_Filter.c ****             CapSense_InitializeIIRInternal(ptrFilterHistObj, ptrSensor, (uint32)ptrWidget->wdgtType
 696:Generated_Source\PSoC6/CapSense_Filter.c ****         #endif /* (CapSense_REGULAR_RC_IIR_FILTER_EN || CapSense_PROX_RC_IIR_FILTER_EN) */
 697:Generated_Source\PSoC6/CapSense_Filter.c **** 
 698:Generated_Source\PSoC6/CapSense_Filter.c ****         #if (CapSense_REGULAR_RC_MEDIAN_FILTER_EN || CapSense_PROX_RC_MEDIAN_FILTER_EN)
 699:Generated_Source\PSoC6/CapSense_Filter.c ****             CapSense_InitializeMedianInternal(ptrFilterHistObj, ptrSensor, (uint32)ptrWidget->wdgtT
 700:Generated_Source\PSoC6/CapSense_Filter.c ****         #endif /* (CapSense_REGULAR_RC_MEDIAN_FILTER_EN || CapSense_PROX_RC_MEDIAN_FILTER_EN) */
 701:Generated_Source\PSoC6/CapSense_Filter.c **** 
 702:Generated_Source\PSoC6/CapSense_Filter.c ****         #if (CapSense_REGULAR_RC_AVERAGE_FILTER_EN || CapSense_PROX_RC_AVERAGE_FILTER_EN)
 703:Generated_Source\PSoC6/CapSense_Filter.c ****             CapSense_InitializeAverageInternal(ptrFilterHistObj, ptrSensor, (uint32)ptrWidget->wdgt
 704:Generated_Source\PSoC6/CapSense_Filter.c ****         #endif /* (CapSense_REGULAR_RC_AVERAGE_FILTER_EN || CapSense_PROX_RC_AVERAGE_FILTER_EN) */
 705:Generated_Source\PSoC6/CapSense_Filter.c **** 
 706:Generated_Source\PSoC6/CapSense_Filter.c ****         #if (CapSense_ALP_FILTER_EN)
 707:Generated_Source\PSoC6/CapSense_Filter.c ****             CapSense_InitializeALPInternal(ptrFilterHistObj, ptrSensor, (uint32)ptrWidget->wdgtType
 708:Generated_Source\PSoC6/CapSense_Filter.c ****         #endif
 709:Generated_Source\PSoC6/CapSense_Filter.c **** 
 710:Generated_Source\PSoC6/CapSense_Filter.c ****         #if (0u != (CapSense_CSD_AUTOTUNE & CapSense_CSD_SS_TH_EN))
 711:Generated_Source\PSoC6/CapSense_Filter.c ****             if (CapSense_SENSE_METHOD_CSD_E ==
 712:Generated_Source\PSoC6/CapSense_Filter.c ****                 CapSense_GET_SENSE_METHOD(&CapSense_dsFlash.wdgtArray[widgetId]))
 713:Generated_Source\PSoC6/CapSense_Filter.c ****             {
 714:Generated_Source\PSoC6/CapSense_Filter.c ****                 SmartSense_InitializeNoiseEnvelope(ptrSensor->raw[0u], ptrWidgetRam->sigPFC, ptrNoi
 715:Generated_Source\PSoC6/CapSense_Filter.c ****             }
 716:Generated_Source\PSoC6/CapSense_Filter.c ****         #endif /* (0u != (CapSense_CSD_AUTOTUNE & CapSense_CSD_SS_TH_EN)) */
 717:Generated_Source\PSoC6/CapSense_Filter.c ****     }
 718:Generated_Source\PSoC6/CapSense_Filter.c **** }
 719:Generated_Source\PSoC6/CapSense_Filter.c **** #endif /* ((CapSense_ENABLE == CapSense_RC_FILTER_EN) || \
 720:Generated_Source\PSoC6/CapSense_Filter.c ****            (0u != (CapSense_CSD_AUTOTUNE & CapSense_CSD_SS_TH_EN))) */
 721:Generated_Source\PSoC6/CapSense_Filter.c **** 
 722:Generated_Source\PSoC6/CapSense_Filter.c **** #if (CapSense_REGULAR_RC_IIR_FILTER_EN || CapSense_PROX_RC_IIR_FILTER_EN)
ARM GAS  C:\Users\DAVIDW~1\AppData\Local\Temp\cc8ZNA3W.s 			page 19


 723:Generated_Source\PSoC6/CapSense_Filter.c **** /*******************************************************************************
 724:Generated_Source\PSoC6/CapSense_Filter.c **** * Function Name: CapSense_InitializeIIR
 725:Generated_Source\PSoC6/CapSense_Filter.c **** ****************************************************************************//**
 726:Generated_Source\PSoC6/CapSense_Filter.c **** *
 727:Generated_Source\PSoC6/CapSense_Filter.c **** * \brief    Initialize the IIR filter history.
 728:Generated_Source\PSoC6/CapSense_Filter.c **** *
 729:Generated_Source\PSoC6/CapSense_Filter.c **** * \details  Initialize the IIR filter history.
 730:Generated_Source\PSoC6/CapSense_Filter.c **** *
 731:Generated_Source\PSoC6/CapSense_Filter.c **** * \param    widgetId Specifies the ID number of the widget.
 732:Generated_Source\PSoC6/CapSense_Filter.c **** * \param    sensorId Specifies the ID number of the sensor in the widget.
 733:Generated_Source\PSoC6/CapSense_Filter.c **** *
 734:Generated_Source\PSoC6/CapSense_Filter.c **** *******************************************************************************/
 735:Generated_Source\PSoC6/CapSense_Filter.c **** void CapSense_InitializeIIR(uint32 widgetId, uint32 sensorId)
 736:Generated_Source\PSoC6/CapSense_Filter.c **** {
 737:Generated_Source\PSoC6/CapSense_Filter.c ****     CapSense_FLASH_WD_STRUCT const *ptrWidget = &CapSense_dsFlash.wdgtArray[widgetId];
 738:Generated_Source\PSoC6/CapSense_Filter.c ****     CapSense_RAM_SNS_STRUCT *ptrSensor = NULL;
 739:Generated_Source\PSoC6/CapSense_Filter.c ****     CapSense_PTR_FILTER_VARIANT ptrFilterHistObj;
 740:Generated_Source\PSoC6/CapSense_Filter.c **** 
 741:Generated_Source\PSoC6/CapSense_Filter.c ****     /* Find pointer to specified sensor object */
 742:Generated_Source\PSoC6/CapSense_Filter.c ****     ptrSensor = ptrWidget->ptr2SnsRam;
 743:Generated_Source\PSoC6/CapSense_Filter.c ****     ptrSensor = &ptrSensor[sensorId];
 744:Generated_Source\PSoC6/CapSense_Filter.c **** 
 745:Generated_Source\PSoC6/CapSense_Filter.c ****     /* Find pointer to specified filter sensor object */
 746:Generated_Source\PSoC6/CapSense_Filter.c ****     ptrFilterHistObj.ptr = ptrWidget->ptr2FltrHistory;
 747:Generated_Source\PSoC6/CapSense_Filter.c **** 
 748:Generated_Source\PSoC6/CapSense_Filter.c ****     if ((CapSense_WD_TYPE_ENUM)ptrWidget->wdgtType != CapSense_WD_PROXIMITY_E)
 749:Generated_Source\PSoC6/CapSense_Filter.c ****     {
 750:Generated_Source\PSoC6/CapSense_Filter.c ****         #if (CapSense_REGULAR_SENSOR_EN)
 751:Generated_Source\PSoC6/CapSense_Filter.c ****             ptrFilterHistObj.ptrRegular = &ptrFilterHistObj.ptrRegular[sensorId];
 752:Generated_Source\PSoC6/CapSense_Filter.c ****         #endif /* (CapSense_REGULAR_SENSOR_EN) */
 753:Generated_Source\PSoC6/CapSense_Filter.c ****     }
 754:Generated_Source\PSoC6/CapSense_Filter.c ****     else
 755:Generated_Source\PSoC6/CapSense_Filter.c ****     {
 756:Generated_Source\PSoC6/CapSense_Filter.c ****         #if (CapSense_PROXIMITY_SENSOR_EN)
 757:Generated_Source\PSoC6/CapSense_Filter.c ****             ptrFilterHistObj.ptrProx = &ptrFilterHistObj.ptrProx[sensorId];
 758:Generated_Source\PSoC6/CapSense_Filter.c ****         #endif /* (CapSense_PROXIMITY_SENSOR_EN) */
 759:Generated_Source\PSoC6/CapSense_Filter.c ****     }
 760:Generated_Source\PSoC6/CapSense_Filter.c **** 
 761:Generated_Source\PSoC6/CapSense_Filter.c ****     CapSense_InitializeIIRInternal(ptrFilterHistObj, ptrSensor, (uint32)ptrWidget->wdgtType);
 762:Generated_Source\PSoC6/CapSense_Filter.c **** }
 763:Generated_Source\PSoC6/CapSense_Filter.c **** 
 764:Generated_Source\PSoC6/CapSense_Filter.c **** 
 765:Generated_Source\PSoC6/CapSense_Filter.c **** /*******************************************************************************
 766:Generated_Source\PSoC6/CapSense_Filter.c **** * Function Name: CapSense_RunIIR
 767:Generated_Source\PSoC6/CapSense_Filter.c **** ****************************************************************************//**
 768:Generated_Source\PSoC6/CapSense_Filter.c **** *
 769:Generated_Source\PSoC6/CapSense_Filter.c **** * \brief    Executes the IIR filter algorithm on a sensor indicated by an input
 770:Generated_Source\PSoC6/CapSense_Filter.c **** *           parameter.
 771:Generated_Source\PSoC6/CapSense_Filter.c **** *
 772:Generated_Source\PSoC6/CapSense_Filter.c **** * \details  Executes the IIR filter algorithm on a sensor indicated by an input
 773:Generated_Source\PSoC6/CapSense_Filter.c **** *           parameter.
 774:Generated_Source\PSoC6/CapSense_Filter.c **** *
 775:Generated_Source\PSoC6/CapSense_Filter.c **** * \param    widgetId Specifies the ID number of the widget.
 776:Generated_Source\PSoC6/CapSense_Filter.c **** * \param    sensorId Specifies the ID number of the sensor in the widget.
 777:Generated_Source\PSoC6/CapSense_Filter.c **** *
 778:Generated_Source\PSoC6/CapSense_Filter.c **** *******************************************************************************/
 779:Generated_Source\PSoC6/CapSense_Filter.c **** void CapSense_RunIIR(uint32 widgetId, uint32 sensorId)
ARM GAS  C:\Users\DAVIDW~1\AppData\Local\Temp\cc8ZNA3W.s 			page 20


 780:Generated_Source\PSoC6/CapSense_Filter.c **** {
 781:Generated_Source\PSoC6/CapSense_Filter.c ****     CapSense_FLASH_WD_STRUCT const *ptrWidget = &CapSense_dsFlash.wdgtArray[widgetId];
 782:Generated_Source\PSoC6/CapSense_Filter.c ****     CapSense_RAM_SNS_STRUCT *ptrSensor = NULL;
 783:Generated_Source\PSoC6/CapSense_Filter.c ****     CapSense_PTR_FILTER_VARIANT ptrFilterHistObj;
 784:Generated_Source\PSoC6/CapSense_Filter.c **** 
 785:Generated_Source\PSoC6/CapSense_Filter.c ****     /* Find pointer to specified sensor object */
 786:Generated_Source\PSoC6/CapSense_Filter.c ****     ptrSensor = ptrWidget->ptr2SnsRam;
 787:Generated_Source\PSoC6/CapSense_Filter.c ****     ptrSensor = &ptrSensor[sensorId];
 788:Generated_Source\PSoC6/CapSense_Filter.c **** 
 789:Generated_Source\PSoC6/CapSense_Filter.c ****     /* Find pointer to specified filter sensor object */
 790:Generated_Source\PSoC6/CapSense_Filter.c ****     ptrFilterHistObj.ptr = ptrWidget->ptr2FltrHistory;
 791:Generated_Source\PSoC6/CapSense_Filter.c **** 
 792:Generated_Source\PSoC6/CapSense_Filter.c ****     if ((CapSense_WD_TYPE_ENUM)ptrWidget->wdgtType != CapSense_WD_PROXIMITY_E)
 793:Generated_Source\PSoC6/CapSense_Filter.c ****     {
 794:Generated_Source\PSoC6/CapSense_Filter.c ****         #if (CapSense_REGULAR_SENSOR_EN)
 795:Generated_Source\PSoC6/CapSense_Filter.c ****             ptrFilterHistObj.ptrRegular = &ptrFilterHistObj.ptrRegular[sensorId];
 796:Generated_Source\PSoC6/CapSense_Filter.c ****         #endif /* (CapSense_REGULAR_SENSOR_EN) */
 797:Generated_Source\PSoC6/CapSense_Filter.c ****     }
 798:Generated_Source\PSoC6/CapSense_Filter.c ****     else
 799:Generated_Source\PSoC6/CapSense_Filter.c ****     {
 800:Generated_Source\PSoC6/CapSense_Filter.c ****         #if (CapSense_PROXIMITY_SENSOR_EN)
 801:Generated_Source\PSoC6/CapSense_Filter.c ****             ptrFilterHistObj.ptrProx = &ptrFilterHistObj.ptrProx[sensorId];
 802:Generated_Source\PSoC6/CapSense_Filter.c ****         #endif /* (CapSense_PROXIMITY_SENSOR_EN) */
 803:Generated_Source\PSoC6/CapSense_Filter.c ****     }
 804:Generated_Source\PSoC6/CapSense_Filter.c **** 
 805:Generated_Source\PSoC6/CapSense_Filter.c ****     CapSense_RunIIRInternal(ptrFilterHistObj, ptrSensor, (uint32)ptrWidget->wdgtType);
 806:Generated_Source\PSoC6/CapSense_Filter.c **** }
 807:Generated_Source\PSoC6/CapSense_Filter.c **** 
 808:Generated_Source\PSoC6/CapSense_Filter.c **** /*******************************************************************************
 809:Generated_Source\PSoC6/CapSense_Filter.c **** * Function Name: CapSense_InitializeIIRInternal
 810:Generated_Source\PSoC6/CapSense_Filter.c **** ****************************************************************************//**
 811:Generated_Source\PSoC6/CapSense_Filter.c **** *
 812:Generated_Source\PSoC6/CapSense_Filter.c **** * \brief    Initializes the IIR filter history.
 813:Generated_Source\PSoC6/CapSense_Filter.c **** *
 814:Generated_Source\PSoC6/CapSense_Filter.c **** * \details  Initializes the IIR filter history.
 815:Generated_Source\PSoC6/CapSense_Filter.c **** *
 816:Generated_Source\PSoC6/CapSense_Filter.c **** * \param    ptrFilterHistObj The pointer to the filter RAM object of the sensor.
 817:Generated_Source\PSoC6/CapSense_Filter.c **** * \param    ptrSensorObj     The pointer to the sensor RAM object of the sensor.
 818:Generated_Source\PSoC6/CapSense_Filter.c **** * \param    wdType           Specifies the type of a widget.
 819:Generated_Source\PSoC6/CapSense_Filter.c **** *
 820:Generated_Source\PSoC6/CapSense_Filter.c **** *******************************************************************************/
 821:Generated_Source\PSoC6/CapSense_Filter.c **** void CapSense_InitializeIIRInternal(CapSense_PTR_FILTER_VARIANT ptrFilterHistObj,
 822:Generated_Source\PSoC6/CapSense_Filter.c ****                                             CapSense_RAM_SNS_STRUCT *ptrSensorObj, uint32 wdType)
 823:Generated_Source\PSoC6/CapSense_Filter.c **** {
 824:Generated_Source\PSoC6/CapSense_Filter.c ****     uint32 freqChannel;
 825:Generated_Source\PSoC6/CapSense_Filter.c **** 
 826:Generated_Source\PSoC6/CapSense_Filter.c ****     for(freqChannel = CapSense_NUM_SCAN_FREQS; freqChannel-- > 0u;)
 827:Generated_Source\PSoC6/CapSense_Filter.c ****     {
 828:Generated_Source\PSoC6/CapSense_Filter.c ****         if ((CapSense_WD_TYPE_ENUM)wdType != CapSense_WD_PROXIMITY_E)
 829:Generated_Source\PSoC6/CapSense_Filter.c ****         {
 830:Generated_Source\PSoC6/CapSense_Filter.c ****             #if (CapSense_REGULAR_SENSOR_EN && CapSense_REGULAR_RC_IIR_FILTER_EN)
 831:Generated_Source\PSoC6/CapSense_Filter.c ****                 #if (CapSense_REGULAR_IIR_RC_TYPE == CapSense_IIR_FILTER_PERFORMANCE)
 832:Generated_Source\PSoC6/CapSense_Filter.c ****                     ptrFilterHistObj.ptrRegular->regularChannel[freqChannel].iirHistory = ptrSensor
 833:Generated_Source\PSoC6/CapSense_Filter.c ****                     ptrFilterHistObj.ptrRegular->regularChannel[freqChannel].iirHistoryLow = 0u;
 834:Generated_Source\PSoC6/CapSense_Filter.c ****                 #else
 835:Generated_Source\PSoC6/CapSense_Filter.c ****                     ptrFilterHistObj.ptrRegular->regularChannel[freqChannel].iirHistory = ptrSensor
 836:Generated_Source\PSoC6/CapSense_Filter.c ****                 #endif /* (CapSense_REGULAR_IIR_RC_TYPE == CapSense_IIR_FILTER_PERFORMANCE) */
ARM GAS  C:\Users\DAVIDW~1\AppData\Local\Temp\cc8ZNA3W.s 			page 21


 837:Generated_Source\PSoC6/CapSense_Filter.c ****             #endif /* (CapSense_REGULAR_SENSOR_EN) */
 838:Generated_Source\PSoC6/CapSense_Filter.c ****         }
 839:Generated_Source\PSoC6/CapSense_Filter.c ****         else
 840:Generated_Source\PSoC6/CapSense_Filter.c ****         {
 841:Generated_Source\PSoC6/CapSense_Filter.c ****             #if (CapSense_PROXIMITY_SENSOR_EN && CapSense_PROX_RC_IIR_FILTER_EN)
 842:Generated_Source\PSoC6/CapSense_Filter.c ****                 #if (CapSense_PROX_IIR_RC_TYPE == CapSense_IIR_FILTER_PERFORMANCE)
 843:Generated_Source\PSoC6/CapSense_Filter.c ****                     ptrFilterHistObj.ptrProx->proxChannel[freqChannel].iirHistory = ptrSensorObj->r
 844:Generated_Source\PSoC6/CapSense_Filter.c ****                     ptrFilterHistObj.ptrProx->proxChannel[freqChannel].iirHistoryLow = 0u;
 845:Generated_Source\PSoC6/CapSense_Filter.c ****                 #else
 846:Generated_Source\PSoC6/CapSense_Filter.c ****                     ptrFilterHistObj.ptrProx->proxChannel[freqChannel].iirHistory = ptrSensorObj->r
 847:Generated_Source\PSoC6/CapSense_Filter.c ****                 #endif /* (CapSense_PROX_IIR_RC_TYPE == CapSense_IIR_FILTER_PERFORMANCE) */
 848:Generated_Source\PSoC6/CapSense_Filter.c ****             #endif /* (CapSense_PROX_SENSOR_EN) */
 849:Generated_Source\PSoC6/CapSense_Filter.c ****         }
 850:Generated_Source\PSoC6/CapSense_Filter.c ****     }
 851:Generated_Source\PSoC6/CapSense_Filter.c **** }
 852:Generated_Source\PSoC6/CapSense_Filter.c **** 
 853:Generated_Source\PSoC6/CapSense_Filter.c **** 
 854:Generated_Source\PSoC6/CapSense_Filter.c **** /*******************************************************************************
 855:Generated_Source\PSoC6/CapSense_Filter.c **** * Function Name: CapSense_RunIIRInternal
 856:Generated_Source\PSoC6/CapSense_Filter.c **** ****************************************************************************//**
 857:Generated_Source\PSoC6/CapSense_Filter.c **** *
 858:Generated_Source\PSoC6/CapSense_Filter.c **** * \brief    Run the IIR filter.
 859:Generated_Source\PSoC6/CapSense_Filter.c **** *
 860:Generated_Source\PSoC6/CapSense_Filter.c **** * \details  Run the IIR filter.
 861:Generated_Source\PSoC6/CapSense_Filter.c **** *
 862:Generated_Source\PSoC6/CapSense_Filter.c **** * \param    ptrFilterHistObj The pointer to the filter RAM object of the sensor.
 863:Generated_Source\PSoC6/CapSense_Filter.c **** * \param    ptrSensorObj     The pointer to the sensor RAM object of the sensor.
 864:Generated_Source\PSoC6/CapSense_Filter.c **** * \param    wdType           Specifies the type of a widget.
 865:Generated_Source\PSoC6/CapSense_Filter.c **** *
 866:Generated_Source\PSoC6/CapSense_Filter.c **** *******************************************************************************/
 867:Generated_Source\PSoC6/CapSense_Filter.c **** void CapSense_RunIIRInternal(CapSense_PTR_FILTER_VARIANT ptrFilterHistObj,
 868:Generated_Source\PSoC6/CapSense_Filter.c ****                                      CapSense_RAM_SNS_STRUCT *ptrSensorObj, uint32 wdType)
 869:Generated_Source\PSoC6/CapSense_Filter.c **** {
 870:Generated_Source\PSoC6/CapSense_Filter.c ****     uint32 freqChannel;
 871:Generated_Source\PSoC6/CapSense_Filter.c ****     uint32 temp;
 872:Generated_Source\PSoC6/CapSense_Filter.c **** 
 873:Generated_Source\PSoC6/CapSense_Filter.c ****     for(freqChannel = CapSense_NUM_SCAN_FREQS; freqChannel-- > 0u;)
 874:Generated_Source\PSoC6/CapSense_Filter.c ****     {
 875:Generated_Source\PSoC6/CapSense_Filter.c ****         if ((CapSense_WD_TYPE_ENUM)wdType != CapSense_WD_PROXIMITY_E)
 876:Generated_Source\PSoC6/CapSense_Filter.c ****         {
 877:Generated_Source\PSoC6/CapSense_Filter.c ****             #if (CapSense_REGULAR_SENSOR_EN && CapSense_REGULAR_RC_IIR_FILTER_EN)
 878:Generated_Source\PSoC6/CapSense_Filter.c ****                 #if (CapSense_REGULAR_IIR_RC_TYPE == CapSense_IIR_FILTER_PERFORMANCE)
 879:Generated_Source\PSoC6/CapSense_Filter.c ****                     temp = ((uint32)ptrFilterHistObj.ptrRegular->regularChannel[freqChannel].iirHis
 880:Generated_Source\PSoC6/CapSense_Filter.c ****                     temp |= ptrFilterHistObj.ptrRegular->regularChannel[freqChannel].iirHistoryLow;
 881:Generated_Source\PSoC6/CapSense_Filter.c ****                     temp = CapSense_FtIIR1stOrder((uint32)ptrSensorObj->raw[freqChannel],
 882:Generated_Source\PSoC6/CapSense_Filter.c ****                                                         temp,
 883:Generated_Source\PSoC6/CapSense_Filter.c ****                                                         CapSense_REGULAR_IIR_RC_N,
 884:Generated_Source\PSoC6/CapSense_Filter.c ****                                                         CapSense_REGULAR_IIR_RC_SHIFT);
 885:Generated_Source\PSoC6/CapSense_Filter.c ****                     ptrFilterHistObj.ptrRegular->regularChannel[freqChannel].iirHistory = CY_LO16(t
 886:Generated_Source\PSoC6/CapSense_Filter.c ****                     ptrFilterHistObj.ptrRegular->regularChannel[freqChannel].iirHistoryLow = CY_LO8
 887:Generated_Source\PSoC6/CapSense_Filter.c ****                     ptrSensorObj->raw[freqChannel] = CY_LO16(temp >>CapSense_REGULAR_IIR_RC_SHIFT);
 888:Generated_Source\PSoC6/CapSense_Filter.c ****                 #else
 889:Generated_Source\PSoC6/CapSense_Filter.c ****                     temp =CapSense_FtIIR1stOrder((uint32)ptrSensorObj->raw[freqChannel],
 890:Generated_Source\PSoC6/CapSense_Filter.c ****                                                         (uint32)ptrFilterHistObj.ptrRegular->regula
 891:Generated_Source\PSoC6/CapSense_Filter.c ****                                                         CapSense_REGULAR_IIR_RC_N,
 892:Generated_Source\PSoC6/CapSense_Filter.c ****                                                         CapSense_REGULAR_IIR_RC_SHIFT);
 893:Generated_Source\PSoC6/CapSense_Filter.c ****                     ptrFilterHistObj.ptrRegular->regularChannel[freqChannel].iirHistory = CY_LO16(t
ARM GAS  C:\Users\DAVIDW~1\AppData\Local\Temp\cc8ZNA3W.s 			page 22


 894:Generated_Source\PSoC6/CapSense_Filter.c ****                     ptrSensorObj->raw[freqChannel] = CY_LO16(temp >>CapSense_REGULAR_IIR_RC_SHIFT);
 895:Generated_Source\PSoC6/CapSense_Filter.c ****                 #endif /* (CapSense_REGULAR_IIR_RC_TYPE == CapSense_IIR_FILTER_PERFORMANCE) */
 896:Generated_Source\PSoC6/CapSense_Filter.c ****             #endif /* (CapSense_REGULAR_SENSOR_EN) */
 897:Generated_Source\PSoC6/CapSense_Filter.c ****         }
 898:Generated_Source\PSoC6/CapSense_Filter.c ****         else
 899:Generated_Source\PSoC6/CapSense_Filter.c ****         {
 900:Generated_Source\PSoC6/CapSense_Filter.c ****             #if (CapSense_PROXIMITY_SENSOR_EN && CapSense_PROX_RC_IIR_FILTER_EN)
 901:Generated_Source\PSoC6/CapSense_Filter.c ****                 #if (CapSense_PROX_IIR_RC_TYPE == CapSense_IIR_FILTER_PERFORMANCE)
 902:Generated_Source\PSoC6/CapSense_Filter.c ****                     temp =  ptrFilterHistObj.ptrProx->proxChannel[freqChannel].iirHistory << CapSen
 903:Generated_Source\PSoC6/CapSense_Filter.c ****                     temp |= ptrFilterHistObj.ptrProx->proxChannel[freqChannel].iirHistoryLow;
 904:Generated_Source\PSoC6/CapSense_Filter.c ****                     temp =CapSense_FtIIR1stOrder((uint32)ptrSensorObj->raw[freqChannel],
 905:Generated_Source\PSoC6/CapSense_Filter.c ****                                                         temp,
 906:Generated_Source\PSoC6/CapSense_Filter.c ****                                                         CapSense_PROX_IIR_RC_N,
 907:Generated_Source\PSoC6/CapSense_Filter.c ****                                                         CapSense_PROX_IIR_RC_SHIFT);
 908:Generated_Source\PSoC6/CapSense_Filter.c ****                     ptrFilterHistObj.ptrProx->proxChannel[freqChannel].iirHistory = CY_LO16(temp >>
 909:Generated_Source\PSoC6/CapSense_Filter.c ****                     ptrFilterHistObj.ptrProx->proxChannel[freqChannel].iirHistoryLow = CY_LO8(temp)
 910:Generated_Source\PSoC6/CapSense_Filter.c ****                     ptrSensorObj->raw[freqChannel] = CY_LO16(temp >>CapSense_PROX_IIR_RC_SHIFT);
 911:Generated_Source\PSoC6/CapSense_Filter.c ****                 #else
 912:Generated_Source\PSoC6/CapSense_Filter.c ****                     temp =CapSense_FtIIR1stOrder((uint32)ptrSensorObj->raw[freqChannel],
 913:Generated_Source\PSoC6/CapSense_Filter.c ****                                                         (uint32)ptrFilterHistObj.ptrProx->proxChann
 914:Generated_Source\PSoC6/CapSense_Filter.c ****                                                         CapSense_PROX_IIR_RC_N,
 915:Generated_Source\PSoC6/CapSense_Filter.c ****                                                         CapSense_PROX_IIR_RC_SHIFT);
 916:Generated_Source\PSoC6/CapSense_Filter.c ****                     ptrFilterHistObj.ptrProx->proxChannel[freqChannel].iirHistory = CY_LO16(temp);
 917:Generated_Source\PSoC6/CapSense_Filter.c ****                     ptrSensorObj->raw[freqChannel] = CY_LO16(temp >>CapSense_PROX_IIR_RC_SHIFT);
 918:Generated_Source\PSoC6/CapSense_Filter.c ****                 #endif /* (CapSense_PROX_IIR_RC_TYPE == CapSense_IIR_FILTER_PERFORMANCE) */
 919:Generated_Source\PSoC6/CapSense_Filter.c ****             #endif /* (CapSense_PROX_SENSOR_EN) */
 920:Generated_Source\PSoC6/CapSense_Filter.c ****         }
 921:Generated_Source\PSoC6/CapSense_Filter.c ****     }
 922:Generated_Source\PSoC6/CapSense_Filter.c **** }
 923:Generated_Source\PSoC6/CapSense_Filter.c **** #endif /* #if (CapSense_REGULAR_RC_IIR_FILTER_EN || CapSense_PROX_RC_IIR_FILTER_EN) */
 924:Generated_Source\PSoC6/CapSense_Filter.c **** 
 925:Generated_Source\PSoC6/CapSense_Filter.c **** 
 926:Generated_Source\PSoC6/CapSense_Filter.c **** #if (CapSense_REGULAR_RC_MEDIAN_FILTER_EN || CapSense_PROX_RC_MEDIAN_FILTER_EN)
 927:Generated_Source\PSoC6/CapSense_Filter.c **** 
 928:Generated_Source\PSoC6/CapSense_Filter.c **** /*******************************************************************************
 929:Generated_Source\PSoC6/CapSense_Filter.c **** * Function Name: CapSense_InitializeMedian
 930:Generated_Source\PSoC6/CapSense_Filter.c **** ****************************************************************************//**
 931:Generated_Source\PSoC6/CapSense_Filter.c **** *
 932:Generated_Source\PSoC6/CapSense_Filter.c **** * \brief    Initializes the Median filter history.
 933:Generated_Source\PSoC6/CapSense_Filter.c **** *
 934:Generated_Source\PSoC6/CapSense_Filter.c **** * \details  Initializes the Median filter history.
 935:Generated_Source\PSoC6/CapSense_Filter.c **** *
 936:Generated_Source\PSoC6/CapSense_Filter.c **** * \param    widgetId Specifies the ID number of the widget.
 937:Generated_Source\PSoC6/CapSense_Filter.c **** * \param    sensorId Specifies the ID number of the sensor in the widget.
 938:Generated_Source\PSoC6/CapSense_Filter.c **** *
 939:Generated_Source\PSoC6/CapSense_Filter.c **** *******************************************************************************/
 940:Generated_Source\PSoC6/CapSense_Filter.c **** void CapSense_InitializeMedian(uint32 widgetId, uint32 sensorId)
 941:Generated_Source\PSoC6/CapSense_Filter.c **** {
 942:Generated_Source\PSoC6/CapSense_Filter.c ****     CapSense_FLASH_WD_STRUCT const *ptrWidget = &CapSense_dsFlash.wdgtArray[widgetId];
 943:Generated_Source\PSoC6/CapSense_Filter.c ****     CapSense_RAM_SNS_STRUCT *ptrSensor = NULL;
 944:Generated_Source\PSoC6/CapSense_Filter.c ****     CapSense_PTR_FILTER_VARIANT ptrFilterHistObj;
 945:Generated_Source\PSoC6/CapSense_Filter.c **** 
 946:Generated_Source\PSoC6/CapSense_Filter.c ****     /* Find pointer to specified sensor object */
 947:Generated_Source\PSoC6/CapSense_Filter.c ****     ptrSensor = ptrWidget->ptr2SnsRam;
 948:Generated_Source\PSoC6/CapSense_Filter.c ****     ptrSensor = &ptrSensor[sensorId];
 949:Generated_Source\PSoC6/CapSense_Filter.c **** 
 950:Generated_Source\PSoC6/CapSense_Filter.c ****     /* Find pointer to specified filter sensor object */
ARM GAS  C:\Users\DAVIDW~1\AppData\Local\Temp\cc8ZNA3W.s 			page 23


 951:Generated_Source\PSoC6/CapSense_Filter.c ****     ptrFilterHistObj.ptr = ptrWidget->ptr2FltrHistory;
 952:Generated_Source\PSoC6/CapSense_Filter.c **** 
 953:Generated_Source\PSoC6/CapSense_Filter.c ****     if ((CapSense_WD_TYPE_ENUM)ptrWidget->wdgtType != CapSense_WD_PROXIMITY_E)
 954:Generated_Source\PSoC6/CapSense_Filter.c ****     {
 955:Generated_Source\PSoC6/CapSense_Filter.c ****         #if (CapSense_REGULAR_SENSOR_EN)
 956:Generated_Source\PSoC6/CapSense_Filter.c ****             ptrFilterHistObj.ptrRegular = &ptrFilterHistObj.ptrRegular[sensorId];
 957:Generated_Source\PSoC6/CapSense_Filter.c ****         #endif /* (CapSense_REGULAR_SENSOR_EN) */
 958:Generated_Source\PSoC6/CapSense_Filter.c ****     }
 959:Generated_Source\PSoC6/CapSense_Filter.c ****     else
 960:Generated_Source\PSoC6/CapSense_Filter.c ****     {
 961:Generated_Source\PSoC6/CapSense_Filter.c ****         #if (CapSense_PROXIMITY_SENSOR_EN)
 962:Generated_Source\PSoC6/CapSense_Filter.c ****             ptrFilterHistObj.ptrProx = &ptrFilterHistObj.ptrProx[sensorId];
 963:Generated_Source\PSoC6/CapSense_Filter.c ****         #endif /* (CapSense_PROXIMITY_SENSOR_EN) */
 964:Generated_Source\PSoC6/CapSense_Filter.c ****     }
 965:Generated_Source\PSoC6/CapSense_Filter.c **** 
 966:Generated_Source\PSoC6/CapSense_Filter.c ****     CapSense_InitializeMedianInternal(ptrFilterHistObj, ptrSensor, (uint32)ptrWidget->wdgtType);
 967:Generated_Source\PSoC6/CapSense_Filter.c **** }
 968:Generated_Source\PSoC6/CapSense_Filter.c **** 
 969:Generated_Source\PSoC6/CapSense_Filter.c **** 
 970:Generated_Source\PSoC6/CapSense_Filter.c **** /*******************************************************************************
 971:Generated_Source\PSoC6/CapSense_Filter.c **** * Function Name: CapSense_RunMedian
 972:Generated_Source\PSoC6/CapSense_Filter.c **** ****************************************************************************//**
 973:Generated_Source\PSoC6/CapSense_Filter.c **** *
 974:Generated_Source\PSoC6/CapSense_Filter.c **** * \brief    Executes the Median filter algorithm on a sensor indicated by an input
 975:Generated_Source\PSoC6/CapSense_Filter.c **** *           parameter.
 976:Generated_Source\PSoC6/CapSense_Filter.c **** *
 977:Generated_Source\PSoC6/CapSense_Filter.c **** * \details  Executes the Median filter algorithm on a sensor indicated by an input
 978:Generated_Source\PSoC6/CapSense_Filter.c **** *           parameter.
 979:Generated_Source\PSoC6/CapSense_Filter.c **** *
 980:Generated_Source\PSoC6/CapSense_Filter.c **** * \param    widgetId Specifies the ID number of the widget.
 981:Generated_Source\PSoC6/CapSense_Filter.c **** * \param    sensorId Specifies the ID number of the sensor in the widget.
 982:Generated_Source\PSoC6/CapSense_Filter.c **** *
 983:Generated_Source\PSoC6/CapSense_Filter.c **** *******************************************************************************/
 984:Generated_Source\PSoC6/CapSense_Filter.c **** void CapSense_RunMedian(uint32 widgetId, uint32 sensorId)
 985:Generated_Source\PSoC6/CapSense_Filter.c **** {
 986:Generated_Source\PSoC6/CapSense_Filter.c ****     CapSense_FLASH_WD_STRUCT const *ptrWidget = &CapSense_dsFlash.wdgtArray[widgetId];
 987:Generated_Source\PSoC6/CapSense_Filter.c ****     CapSense_RAM_SNS_STRUCT *ptrSensor = NULL;
 988:Generated_Source\PSoC6/CapSense_Filter.c ****     CapSense_PTR_FILTER_VARIANT ptrFilterHistObj;
 989:Generated_Source\PSoC6/CapSense_Filter.c **** 
 990:Generated_Source\PSoC6/CapSense_Filter.c ****     /* Find pointer to specified sensor object */
 991:Generated_Source\PSoC6/CapSense_Filter.c ****     ptrSensor = ptrWidget->ptr2SnsRam;
 992:Generated_Source\PSoC6/CapSense_Filter.c ****     ptrSensor = &ptrSensor[sensorId];
 993:Generated_Source\PSoC6/CapSense_Filter.c **** 
 994:Generated_Source\PSoC6/CapSense_Filter.c ****     /* Find pointer to specified filter sensor object */
 995:Generated_Source\PSoC6/CapSense_Filter.c ****     ptrFilterHistObj.ptr = ptrWidget->ptr2FltrHistory;
 996:Generated_Source\PSoC6/CapSense_Filter.c **** 
 997:Generated_Source\PSoC6/CapSense_Filter.c ****     if ((CapSense_WD_TYPE_ENUM)ptrWidget->wdgtType != CapSense_WD_PROXIMITY_E)
 998:Generated_Source\PSoC6/CapSense_Filter.c ****     {
 999:Generated_Source\PSoC6/CapSense_Filter.c ****         #if (CapSense_REGULAR_SENSOR_EN)
1000:Generated_Source\PSoC6/CapSense_Filter.c ****             ptrFilterHistObj.ptrRegular = &ptrFilterHistObj.ptrRegular[sensorId];
1001:Generated_Source\PSoC6/CapSense_Filter.c ****         #endif /* (CapSense_REGULAR_SENSOR_EN) */
1002:Generated_Source\PSoC6/CapSense_Filter.c ****     }
1003:Generated_Source\PSoC6/CapSense_Filter.c ****     else
1004:Generated_Source\PSoC6/CapSense_Filter.c ****     {
1005:Generated_Source\PSoC6/CapSense_Filter.c ****         #if (CapSense_PROXIMITY_SENSOR_EN)
1006:Generated_Source\PSoC6/CapSense_Filter.c ****             ptrFilterHistObj.ptrProx = &ptrFilterHistObj.ptrProx[sensorId];
1007:Generated_Source\PSoC6/CapSense_Filter.c ****         #endif /* (CapSense_PROXIMITY_SENSOR_EN) */
ARM GAS  C:\Users\DAVIDW~1\AppData\Local\Temp\cc8ZNA3W.s 			page 24


1008:Generated_Source\PSoC6/CapSense_Filter.c ****     }
1009:Generated_Source\PSoC6/CapSense_Filter.c **** 
1010:Generated_Source\PSoC6/CapSense_Filter.c ****     CapSense_RunMedianInternal(ptrFilterHistObj, ptrSensor, (uint32)ptrWidget->wdgtType);
1011:Generated_Source\PSoC6/CapSense_Filter.c **** }
1012:Generated_Source\PSoC6/CapSense_Filter.c **** 
1013:Generated_Source\PSoC6/CapSense_Filter.c **** 
1014:Generated_Source\PSoC6/CapSense_Filter.c **** /*******************************************************************************
1015:Generated_Source\PSoC6/CapSense_Filter.c **** * Function Name: CapSense_InitializeMedianInternal
1016:Generated_Source\PSoC6/CapSense_Filter.c **** ****************************************************************************//**
1017:Generated_Source\PSoC6/CapSense_Filter.c **** *
1018:Generated_Source\PSoC6/CapSense_Filter.c **** * \brief    Initializes the Median filter.
1019:Generated_Source\PSoC6/CapSense_Filter.c **** *
1020:Generated_Source\PSoC6/CapSense_Filter.c **** * \details  Initializes the Median filter.
1021:Generated_Source\PSoC6/CapSense_Filter.c **** *
1022:Generated_Source\PSoC6/CapSense_Filter.c **** * \param    ptrFilterHistObj The pointer to the filter RAM object of the sensor.
1023:Generated_Source\PSoC6/CapSense_Filter.c **** * \param    ptrSensorObj     The pointer to the sensor RAM object of the sensor.
1024:Generated_Source\PSoC6/CapSense_Filter.c **** * \param    wdType           Specifies the type of a widget.
1025:Generated_Source\PSoC6/CapSense_Filter.c **** *
1026:Generated_Source\PSoC6/CapSense_Filter.c **** *******************************************************************************/
1027:Generated_Source\PSoC6/CapSense_Filter.c **** void CapSense_InitializeMedianInternal(CapSense_PTR_FILTER_VARIANT ptrFilterHistObj,
1028:Generated_Source\PSoC6/CapSense_Filter.c ****                                                CapSense_RAM_SNS_STRUCT *ptrSensorObj, uint32 wdType
1029:Generated_Source\PSoC6/CapSense_Filter.c **** {
1030:Generated_Source\PSoC6/CapSense_Filter.c ****     uint32 freqChannel;
1031:Generated_Source\PSoC6/CapSense_Filter.c **** 
1032:Generated_Source\PSoC6/CapSense_Filter.c ****     for(freqChannel = CapSense_NUM_SCAN_FREQS; freqChannel-- > 0u;)
1033:Generated_Source\PSoC6/CapSense_Filter.c ****     {
1034:Generated_Source\PSoC6/CapSense_Filter.c ****         if ((CapSense_WD_TYPE_ENUM)wdType != CapSense_WD_PROXIMITY_E)
1035:Generated_Source\PSoC6/CapSense_Filter.c ****         {
1036:Generated_Source\PSoC6/CapSense_Filter.c ****             #if (CapSense_REGULAR_SENSOR_EN && CapSense_REGULAR_RC_MEDIAN_FILTER_EN)
1037:Generated_Source\PSoC6/CapSense_Filter.c ****                 ptrFilterHistObj.ptrRegular->regularChannel[freqChannel].medHistory[0u] = ptrSensor
1038:Generated_Source\PSoC6/CapSense_Filter.c ****                 ptrFilterHistObj.ptrRegular->regularChannel[freqChannel].medHistory[1u] = ptrSensor
1039:Generated_Source\PSoC6/CapSense_Filter.c ****             #endif /* (CapSense_REGULAR_SENSOR_EN) */
1040:Generated_Source\PSoC6/CapSense_Filter.c ****         }
1041:Generated_Source\PSoC6/CapSense_Filter.c ****         else
1042:Generated_Source\PSoC6/CapSense_Filter.c ****         {
1043:Generated_Source\PSoC6/CapSense_Filter.c ****             #if (CapSense_PROXIMITY_SENSOR_EN && CapSense_PROX_RC_MEDIAN_FILTER_EN)
1044:Generated_Source\PSoC6/CapSense_Filter.c ****                 ptrFilterHistObj.ptrProx->proxChannel[freqChannel].medHistory[0u] = ptrSensorObj->r
1045:Generated_Source\PSoC6/CapSense_Filter.c ****                 ptrFilterHistObj.ptrProx->proxChannel[freqChannel].medHistory[1u] = ptrSensorObj->r
1046:Generated_Source\PSoC6/CapSense_Filter.c ****             #endif /* (CapSense_PROXIMITY_SENSOR_EN) */
1047:Generated_Source\PSoC6/CapSense_Filter.c ****         }
1048:Generated_Source\PSoC6/CapSense_Filter.c ****     }
1049:Generated_Source\PSoC6/CapSense_Filter.c **** }
1050:Generated_Source\PSoC6/CapSense_Filter.c **** 
1051:Generated_Source\PSoC6/CapSense_Filter.c **** 
1052:Generated_Source\PSoC6/CapSense_Filter.c **** /*******************************************************************************
1053:Generated_Source\PSoC6/CapSense_Filter.c **** * Function Name: CapSense_RunMedianInternal
1054:Generated_Source\PSoC6/CapSense_Filter.c **** ****************************************************************************//**
1055:Generated_Source\PSoC6/CapSense_Filter.c **** *
1056:Generated_Source\PSoC6/CapSense_Filter.c **** * \brief    Runs the Median filter.
1057:Generated_Source\PSoC6/CapSense_Filter.c **** *
1058:Generated_Source\PSoC6/CapSense_Filter.c **** * \details  Runs the Median filter.
1059:Generated_Source\PSoC6/CapSense_Filter.c **** *
1060:Generated_Source\PSoC6/CapSense_Filter.c **** * \param    ptrFilterHistObj The pointer to the filter RAM object of the sensor.
1061:Generated_Source\PSoC6/CapSense_Filter.c **** * \param    ptrSensorObj     The pointer to the sensor RAM object of the sensor.
1062:Generated_Source\PSoC6/CapSense_Filter.c **** * \param    wdType           Specifies the type of a widget.
1063:Generated_Source\PSoC6/CapSense_Filter.c **** *
1064:Generated_Source\PSoC6/CapSense_Filter.c **** *******************************************************************************/
ARM GAS  C:\Users\DAVIDW~1\AppData\Local\Temp\cc8ZNA3W.s 			page 25


1065:Generated_Source\PSoC6/CapSense_Filter.c **** void CapSense_RunMedianInternal(CapSense_PTR_FILTER_VARIANT ptrFilterHistObj,
1066:Generated_Source\PSoC6/CapSense_Filter.c ****                                         CapSense_RAM_SNS_STRUCT *ptrSensorObj, uint32 wdType)
1067:Generated_Source\PSoC6/CapSense_Filter.c **** {
1068:Generated_Source\PSoC6/CapSense_Filter.c ****     uint32 freqChannel;
1069:Generated_Source\PSoC6/CapSense_Filter.c **** 
1070:Generated_Source\PSoC6/CapSense_Filter.c ****     #if ((CapSense_REGULAR_SENSOR_EN && CapSense_REGULAR_RC_MEDIAN_FILTER_EN) || \
1071:Generated_Source\PSoC6/CapSense_Filter.c ****          (CapSense_PROXIMITY_SENSOR_EN && CapSense_PROX_RC_MEDIAN_FILTER_EN))
1072:Generated_Source\PSoC6/CapSense_Filter.c ****         uint32 temp;
1073:Generated_Source\PSoC6/CapSense_Filter.c ****     #endif
1074:Generated_Source\PSoC6/CapSense_Filter.c **** 
1075:Generated_Source\PSoC6/CapSense_Filter.c ****     for(freqChannel = CapSense_NUM_SCAN_FREQS; freqChannel-- > 0u;)
1076:Generated_Source\PSoC6/CapSense_Filter.c ****     {
1077:Generated_Source\PSoC6/CapSense_Filter.c ****         if ((CapSense_WD_TYPE_ENUM)wdType != CapSense_WD_PROXIMITY_E)
1078:Generated_Source\PSoC6/CapSense_Filter.c ****         {
1079:Generated_Source\PSoC6/CapSense_Filter.c ****             #if (CapSense_REGULAR_SENSOR_EN && CapSense_REGULAR_RC_MEDIAN_FILTER_EN)
1080:Generated_Source\PSoC6/CapSense_Filter.c ****                 temp = CapSense_FtMedian((uint32)ptrSensorObj->raw[freqChannel],\
1081:Generated_Source\PSoC6/CapSense_Filter.c ****                                                  (uint32)ptrFilterHistObj.ptrRegular->regularChanne
1082:Generated_Source\PSoC6/CapSense_Filter.c ****                                                  (uint32)ptrFilterHistObj.ptrRegular->regularChanne
1083:Generated_Source\PSoC6/CapSense_Filter.c ****                 ptrFilterHistObj.ptrRegular->regularChannel[freqChannel].medHistory[1u] = \
1084:Generated_Source\PSoC6/CapSense_Filter.c ****                 ptrFilterHistObj.ptrRegular->regularChannel[freqChannel].medHistory[0u];
1085:Generated_Source\PSoC6/CapSense_Filter.c ****                 ptrFilterHistObj.ptrRegular->regularChannel[freqChannel].medHistory[0u] = ptrSensor
1086:Generated_Source\PSoC6/CapSense_Filter.c ****                 ptrSensorObj->raw[freqChannel] = CY_LO16(temp);
1087:Generated_Source\PSoC6/CapSense_Filter.c ****             #endif /* (CapSense_REGULAR_SENSOR_EN) */
1088:Generated_Source\PSoC6/CapSense_Filter.c ****         }
1089:Generated_Source\PSoC6/CapSense_Filter.c ****         else
1090:Generated_Source\PSoC6/CapSense_Filter.c ****         {
1091:Generated_Source\PSoC6/CapSense_Filter.c ****             #if (CapSense_PROXIMITY_SENSOR_EN && CapSense_PROX_RC_MEDIAN_FILTER_EN)
1092:Generated_Source\PSoC6/CapSense_Filter.c ****                 temp = CapSense_FtMedian((uint32)ptrSensorObj->raw[freqChannel],\
1093:Generated_Source\PSoC6/CapSense_Filter.c ****                                                  (uint32)ptrFilterHistObj.ptrProx->proxChannel[freq
1094:Generated_Source\PSoC6/CapSense_Filter.c ****                                                  (uint32)ptrFilterHistObj.ptrProx->proxChannel[freq
1095:Generated_Source\PSoC6/CapSense_Filter.c ****                 ptrFilterHistObj.ptrProx->proxChannel[freqChannel].medHistory[1u] = \
1096:Generated_Source\PSoC6/CapSense_Filter.c ****                 ptrFilterHistObj.ptrProx->proxChannel[freqChannel].medHistory[0u];
1097:Generated_Source\PSoC6/CapSense_Filter.c ****                 ptrFilterHistObj.ptrProx->proxChannel[freqChannel].medHistory[0u] = ptrSensorObj->r
1098:Generated_Source\PSoC6/CapSense_Filter.c ****                 ptrSensorObj->raw[freqChannel] = CY_LO16(temp);
1099:Generated_Source\PSoC6/CapSense_Filter.c ****             #endif /* (CapSense_PROXIMITY_SENSOR_EN) */
1100:Generated_Source\PSoC6/CapSense_Filter.c ****         }
1101:Generated_Source\PSoC6/CapSense_Filter.c ****     }
1102:Generated_Source\PSoC6/CapSense_Filter.c **** }
1103:Generated_Source\PSoC6/CapSense_Filter.c **** #endif /* (CapSense_REGULAR_RC_MEDIAN_FILTER_EN || CapSense_PROX_RC_MEDIAN_FILTER_EN) */
1104:Generated_Source\PSoC6/CapSense_Filter.c **** 
1105:Generated_Source\PSoC6/CapSense_Filter.c **** 
1106:Generated_Source\PSoC6/CapSense_Filter.c **** #if (CapSense_REGULAR_RC_AVERAGE_FILTER_EN || CapSense_PROX_RC_AVERAGE_FILTER_EN)
1107:Generated_Source\PSoC6/CapSense_Filter.c **** 
1108:Generated_Source\PSoC6/CapSense_Filter.c **** /*******************************************************************************
1109:Generated_Source\PSoC6/CapSense_Filter.c **** * Function Name: CapSense_InitializeAverage
1110:Generated_Source\PSoC6/CapSense_Filter.c **** ****************************************************************************//**
1111:Generated_Source\PSoC6/CapSense_Filter.c **** *
1112:Generated_Source\PSoC6/CapSense_Filter.c **** * \brief    Initializes the average filter history.
1113:Generated_Source\PSoC6/CapSense_Filter.c **** *
1114:Generated_Source\PSoC6/CapSense_Filter.c **** * \details  Initializes the average filter history.
1115:Generated_Source\PSoC6/CapSense_Filter.c **** *
1116:Generated_Source\PSoC6/CapSense_Filter.c **** * \param    widgetId Specifies the ID number of the widget.
1117:Generated_Source\PSoC6/CapSense_Filter.c **** * \param    sensorId Specifies the ID number of the sensor in the widget.
1118:Generated_Source\PSoC6/CapSense_Filter.c **** *
1119:Generated_Source\PSoC6/CapSense_Filter.c **** *******************************************************************************/
1120:Generated_Source\PSoC6/CapSense_Filter.c **** void CapSense_InitializeAverage(uint32 widgetId, uint32 sensorId)
1121:Generated_Source\PSoC6/CapSense_Filter.c **** {
ARM GAS  C:\Users\DAVIDW~1\AppData\Local\Temp\cc8ZNA3W.s 			page 26


1122:Generated_Source\PSoC6/CapSense_Filter.c ****     CapSense_FLASH_WD_STRUCT const *ptrWidget = &CapSense_dsFlash.wdgtArray[widgetId];
1123:Generated_Source\PSoC6/CapSense_Filter.c ****     CapSense_RAM_SNS_STRUCT *ptrSensor = NULL;
1124:Generated_Source\PSoC6/CapSense_Filter.c ****     CapSense_PTR_FILTER_VARIANT ptrFilterHistObj;
1125:Generated_Source\PSoC6/CapSense_Filter.c **** 
1126:Generated_Source\PSoC6/CapSense_Filter.c ****     /* Find pointer to specified sensor object */
1127:Generated_Source\PSoC6/CapSense_Filter.c ****     ptrSensor = ptrWidget->ptr2SnsRam;
1128:Generated_Source\PSoC6/CapSense_Filter.c ****     ptrSensor = &ptrSensor[sensorId];
1129:Generated_Source\PSoC6/CapSense_Filter.c **** 
1130:Generated_Source\PSoC6/CapSense_Filter.c ****     /* Find pointer to specified filter sensor object */
1131:Generated_Source\PSoC6/CapSense_Filter.c ****     ptrFilterHistObj.ptr = ptrWidget->ptr2FltrHistory;
1132:Generated_Source\PSoC6/CapSense_Filter.c **** 
1133:Generated_Source\PSoC6/CapSense_Filter.c ****     if ((CapSense_WD_TYPE_ENUM)ptrWidget->wdgtType != CapSense_WD_PROXIMITY_E)
1134:Generated_Source\PSoC6/CapSense_Filter.c ****     {
1135:Generated_Source\PSoC6/CapSense_Filter.c ****         #if (CapSense_REGULAR_SENSOR_EN)
1136:Generated_Source\PSoC6/CapSense_Filter.c ****             ptrFilterHistObj.ptrRegular = &ptrFilterHistObj.ptrRegular[sensorId];
1137:Generated_Source\PSoC6/CapSense_Filter.c ****         #endif /* (CapSense_REGULAR_SENSOR_EN) */
1138:Generated_Source\PSoC6/CapSense_Filter.c ****     }
1139:Generated_Source\PSoC6/CapSense_Filter.c ****     else
1140:Generated_Source\PSoC6/CapSense_Filter.c ****     {
1141:Generated_Source\PSoC6/CapSense_Filter.c ****         #if (CapSense_PROXIMITY_SENSOR_EN)
1142:Generated_Source\PSoC6/CapSense_Filter.c ****             ptrFilterHistObj.ptrProx = &ptrFilterHistObj.ptrProx[sensorId];
1143:Generated_Source\PSoC6/CapSense_Filter.c ****         #endif /* (CapSense_PROXIMITY_SENSOR_EN) */
1144:Generated_Source\PSoC6/CapSense_Filter.c ****     }
1145:Generated_Source\PSoC6/CapSense_Filter.c **** 
1146:Generated_Source\PSoC6/CapSense_Filter.c ****     CapSense_InitializeAverageInternal(ptrFilterHistObj, ptrSensor, (uint32)ptrWidget->wdgtType);
1147:Generated_Source\PSoC6/CapSense_Filter.c **** }
1148:Generated_Source\PSoC6/CapSense_Filter.c **** 
1149:Generated_Source\PSoC6/CapSense_Filter.c **** 
1150:Generated_Source\PSoC6/CapSense_Filter.c **** /*******************************************************************************
1151:Generated_Source\PSoC6/CapSense_Filter.c **** * Function Name: CapSense_RunAverage
1152:Generated_Source\PSoC6/CapSense_Filter.c **** ****************************************************************************//**
1153:Generated_Source\PSoC6/CapSense_Filter.c **** *
1154:Generated_Source\PSoC6/CapSense_Filter.c **** * \brief    Executes the average filter algorithm on a sensor indicated by an input
1155:Generated_Source\PSoC6/CapSense_Filter.c **** *           parameter.
1156:Generated_Source\PSoC6/CapSense_Filter.c **** *
1157:Generated_Source\PSoC6/CapSense_Filter.c **** * \details  Executes the average filter algorithm on a sensor indicated by an input
1158:Generated_Source\PSoC6/CapSense_Filter.c **** *           parameter.
1159:Generated_Source\PSoC6/CapSense_Filter.c **** *
1160:Generated_Source\PSoC6/CapSense_Filter.c **** * \param    widgetId Specifies the ID number of the widget.
1161:Generated_Source\PSoC6/CapSense_Filter.c **** * \param    sensorId Specifies the ID number of the sensor in the widget.
1162:Generated_Source\PSoC6/CapSense_Filter.c **** *
1163:Generated_Source\PSoC6/CapSense_Filter.c **** *******************************************************************************/
1164:Generated_Source\PSoC6/CapSense_Filter.c **** void CapSense_RunAverage(uint32 widgetId, uint32 sensorId)
1165:Generated_Source\PSoC6/CapSense_Filter.c **** {
1166:Generated_Source\PSoC6/CapSense_Filter.c ****     CapSense_FLASH_WD_STRUCT const *ptrWidget = &CapSense_dsFlash.wdgtArray[widgetId];
1167:Generated_Source\PSoC6/CapSense_Filter.c ****     CapSense_RAM_SNS_STRUCT *ptrSensor = NULL;
1168:Generated_Source\PSoC6/CapSense_Filter.c ****     CapSense_PTR_FILTER_VARIANT ptrFilterHistObj;
1169:Generated_Source\PSoC6/CapSense_Filter.c **** 
1170:Generated_Source\PSoC6/CapSense_Filter.c ****     /* Find pointer to specified sensor object */
1171:Generated_Source\PSoC6/CapSense_Filter.c ****     ptrSensor = ptrWidget->ptr2SnsRam;
1172:Generated_Source\PSoC6/CapSense_Filter.c ****     ptrSensor = &ptrSensor[sensorId];
1173:Generated_Source\PSoC6/CapSense_Filter.c **** 
1174:Generated_Source\PSoC6/CapSense_Filter.c ****     /* Find pointer to specified filter sensor object */
1175:Generated_Source\PSoC6/CapSense_Filter.c ****     ptrFilterHistObj.ptr = ptrWidget->ptr2FltrHistory;
1176:Generated_Source\PSoC6/CapSense_Filter.c **** 
1177:Generated_Source\PSoC6/CapSense_Filter.c ****     if ((CapSense_WD_TYPE_ENUM)ptrWidget->wdgtType != CapSense_WD_PROXIMITY_E)
1178:Generated_Source\PSoC6/CapSense_Filter.c ****     {
ARM GAS  C:\Users\DAVIDW~1\AppData\Local\Temp\cc8ZNA3W.s 			page 27


1179:Generated_Source\PSoC6/CapSense_Filter.c ****         #if (CapSense_REGULAR_SENSOR_EN)
1180:Generated_Source\PSoC6/CapSense_Filter.c ****             ptrFilterHistObj.ptrRegular = &ptrFilterHistObj.ptrRegular[sensorId];
1181:Generated_Source\PSoC6/CapSense_Filter.c ****         #endif /* (CapSense_REGULAR_SENSOR_EN) */
1182:Generated_Source\PSoC6/CapSense_Filter.c ****     }
1183:Generated_Source\PSoC6/CapSense_Filter.c ****     else
1184:Generated_Source\PSoC6/CapSense_Filter.c ****     {
1185:Generated_Source\PSoC6/CapSense_Filter.c ****         #if (CapSense_PROXIMITY_SENSOR_EN)
1186:Generated_Source\PSoC6/CapSense_Filter.c ****             ptrFilterHistObj.ptrProx = &ptrFilterHistObj.ptrProx[sensorId];
1187:Generated_Source\PSoC6/CapSense_Filter.c ****         #endif /* (CapSense_PROXIMITY_SENSOR_EN) */
1188:Generated_Source\PSoC6/CapSense_Filter.c ****     }
1189:Generated_Source\PSoC6/CapSense_Filter.c **** 
1190:Generated_Source\PSoC6/CapSense_Filter.c ****     CapSense_RunAverageInternal(ptrFilterHistObj, ptrSensor, (uint32)ptrWidget->wdgtType);
1191:Generated_Source\PSoC6/CapSense_Filter.c **** }
1192:Generated_Source\PSoC6/CapSense_Filter.c **** 
1193:Generated_Source\PSoC6/CapSense_Filter.c **** 
1194:Generated_Source\PSoC6/CapSense_Filter.c **** /*******************************************************************************
1195:Generated_Source\PSoC6/CapSense_Filter.c **** * Function Name: CapSense_InitializeAverageInternal
1196:Generated_Source\PSoC6/CapSense_Filter.c **** ****************************************************************************//**
1197:Generated_Source\PSoC6/CapSense_Filter.c **** *
1198:Generated_Source\PSoC6/CapSense_Filter.c **** * \brief    Initializes the average filter.
1199:Generated_Source\PSoC6/CapSense_Filter.c **** *
1200:Generated_Source\PSoC6/CapSense_Filter.c **** * \details  Initializes the average filter.
1201:Generated_Source\PSoC6/CapSense_Filter.c **** *
1202:Generated_Source\PSoC6/CapSense_Filter.c **** * \param    ptrFilterHistObj The pointer to the filter RAM object of the sensor.
1203:Generated_Source\PSoC6/CapSense_Filter.c **** * \param    ptrSensorObj     The pointer to the sensor RAM object of the sensor.
1204:Generated_Source\PSoC6/CapSense_Filter.c **** * \param    wdType           Specifies the type of a widget.
1205:Generated_Source\PSoC6/CapSense_Filter.c **** *
1206:Generated_Source\PSoC6/CapSense_Filter.c **** *******************************************************************************/
1207:Generated_Source\PSoC6/CapSense_Filter.c **** void CapSense_InitializeAverageInternal(CapSense_PTR_FILTER_VARIANT ptrFilterHistObj,\
1208:Generated_Source\PSoC6/CapSense_Filter.c ****                                                   CapSense_RAM_SNS_STRUCT *ptrSensorObj, uint32 wdT
1209:Generated_Source\PSoC6/CapSense_Filter.c **** {
1210:Generated_Source\PSoC6/CapSense_Filter.c ****     uint32 freqChannel;
1211:Generated_Source\PSoC6/CapSense_Filter.c **** 
1212:Generated_Source\PSoC6/CapSense_Filter.c ****     for(freqChannel = CapSense_NUM_SCAN_FREQS; freqChannel-- > 0u;)
1213:Generated_Source\PSoC6/CapSense_Filter.c ****     {
1214:Generated_Source\PSoC6/CapSense_Filter.c ****         if ((CapSense_WD_TYPE_ENUM)wdType != CapSense_WD_PROXIMITY_E)
1215:Generated_Source\PSoC6/CapSense_Filter.c ****         {
1216:Generated_Source\PSoC6/CapSense_Filter.c ****             #if (CapSense_REGULAR_SENSOR_EN && CapSense_REGULAR_RC_AVERAGE_FILTER_EN)
1217:Generated_Source\PSoC6/CapSense_Filter.c ****                 ptrFilterHistObj.ptrRegular->regularChannel[freqChannel].avgHistory[0] = ptrSensorO
1218:Generated_Source\PSoC6/CapSense_Filter.c ****                 #if (CapSense_REGULAR_AVERAGE_LEN == CapSense_AVERAGE_FILTER_LEN_4)
1219:Generated_Source\PSoC6/CapSense_Filter.c ****                     ptrFilterHistObj.ptrRegular->regularChannel[freqChannel].avgHistory[1u] = ptrSe
1220:Generated_Source\PSoC6/CapSense_Filter.c ****                     ptrFilterHistObj.ptrRegular->regularChannel[freqChannel].avgHistory[2u] = ptrSe
1221:Generated_Source\PSoC6/CapSense_Filter.c ****                 #endif /* CapSense_REGULAR_AVERAGE_LEN == CapSense_AVERAGE_FILTER_LEN_4 */
1222:Generated_Source\PSoC6/CapSense_Filter.c ****             #endif /* (CapSense_REGULAR_SENSOR_EN) */
1223:Generated_Source\PSoC6/CapSense_Filter.c ****         }
1224:Generated_Source\PSoC6/CapSense_Filter.c ****         else
1225:Generated_Source\PSoC6/CapSense_Filter.c ****         {
1226:Generated_Source\PSoC6/CapSense_Filter.c ****             #if (CapSense_PROXIMITY_SENSOR_EN && CapSense_PROX_RC_AVERAGE_FILTER_EN)
1227:Generated_Source\PSoC6/CapSense_Filter.c ****                 ptrFilterHistObj.ptrProx->proxChannel[freqChannel].avgHistory[0] = ptrSensorObj->ra
1228:Generated_Source\PSoC6/CapSense_Filter.c ****                     #if (CapSense_PROX_AVERAGE_LEN == CapSense_AVERAGE_FILTER_LEN_4)
1229:Generated_Source\PSoC6/CapSense_Filter.c ****                         ptrFilterHistObj.ptrProx->proxChannel[freqChannel].avgHistory[1u] = ptrSens
1230:Generated_Source\PSoC6/CapSense_Filter.c ****                         ptrFilterHistObj.ptrProx->proxChannel[freqChannel].avgHistory[2u] = ptrSens
1231:Generated_Source\PSoC6/CapSense_Filter.c ****                     #endif /* CapSense_REGULAR_AVERAGE_LEN == CapSense_AVERAGE_FILTER_LEN_4 */
1232:Generated_Source\PSoC6/CapSense_Filter.c ****             #endif /* (CapSense_PROXIMITY_SENSOR_EN) */
1233:Generated_Source\PSoC6/CapSense_Filter.c ****         }
1234:Generated_Source\PSoC6/CapSense_Filter.c ****     }
1235:Generated_Source\PSoC6/CapSense_Filter.c **** }
ARM GAS  C:\Users\DAVIDW~1\AppData\Local\Temp\cc8ZNA3W.s 			page 28


1236:Generated_Source\PSoC6/CapSense_Filter.c **** 
1237:Generated_Source\PSoC6/CapSense_Filter.c **** 
1238:Generated_Source\PSoC6/CapSense_Filter.c **** /*******************************************************************************
1239:Generated_Source\PSoC6/CapSense_Filter.c **** * Function Name: CapSense_RunAverageInternal
1240:Generated_Source\PSoC6/CapSense_Filter.c **** ****************************************************************************//**
1241:Generated_Source\PSoC6/CapSense_Filter.c **** *
1242:Generated_Source\PSoC6/CapSense_Filter.c **** * \brief    Runs the average filter.
1243:Generated_Source\PSoC6/CapSense_Filter.c **** *
1244:Generated_Source\PSoC6/CapSense_Filter.c **** * \details  Runs the average filter.
1245:Generated_Source\PSoC6/CapSense_Filter.c **** *
1246:Generated_Source\PSoC6/CapSense_Filter.c **** * \param    ptrFilterHistObj The pointer to the filter RAM object of the sensor.
1247:Generated_Source\PSoC6/CapSense_Filter.c **** * \param    ptrSensorObj     The pointer to the sensor RAM object of the sensor.
1248:Generated_Source\PSoC6/CapSense_Filter.c **** * \param    wdType           Specifies the type of a widget.
1249:Generated_Source\PSoC6/CapSense_Filter.c **** *
1250:Generated_Source\PSoC6/CapSense_Filter.c **** *******************************************************************************/
1251:Generated_Source\PSoC6/CapSense_Filter.c **** void CapSense_RunAverageInternal(CapSense_PTR_FILTER_VARIANT ptrFilterHistObj,\
1252:Generated_Source\PSoC6/CapSense_Filter.c ****                                            CapSense_RAM_SNS_STRUCT *ptrSensorObj, uint32 wdType)
1253:Generated_Source\PSoC6/CapSense_Filter.c **** {
1254:Generated_Source\PSoC6/CapSense_Filter.c ****     uint32 freqChannel;
1255:Generated_Source\PSoC6/CapSense_Filter.c ****     uint32 temp;
1256:Generated_Source\PSoC6/CapSense_Filter.c **** 
1257:Generated_Source\PSoC6/CapSense_Filter.c ****     for(freqChannel = CapSense_NUM_SCAN_FREQS; freqChannel-- > 0u;)
1258:Generated_Source\PSoC6/CapSense_Filter.c ****     {
1259:Generated_Source\PSoC6/CapSense_Filter.c ****         if ((CapSense_WD_TYPE_ENUM)wdType != CapSense_WD_PROXIMITY_E)
1260:Generated_Source\PSoC6/CapSense_Filter.c ****         {
1261:Generated_Source\PSoC6/CapSense_Filter.c ****             #if (CapSense_REGULAR_SENSOR_EN && CapSense_REGULAR_RC_AVERAGE_FILTER_EN)
1262:Generated_Source\PSoC6/CapSense_Filter.c ****                 #if (CapSense_REGULAR_AVERAGE_LEN == CapSense_AVERAGE_FILTER_LEN_2)
1263:Generated_Source\PSoC6/CapSense_Filter.c ****                     temp = ((uint32)ptrSensorObj->raw[freqChannel] +
1264:Generated_Source\PSoC6/CapSense_Filter.c ****                             (uint32)ptrFilterHistObj.ptrRegular->regularChannel[freqChannel].avgHis
1265:Generated_Source\PSoC6/CapSense_Filter.c ****                     ptrFilterHistObj.ptrRegular->regularChannel[freqChannel].avgHistory[0] = ptrSen
1266:Generated_Source\PSoC6/CapSense_Filter.c ****                     ptrSensorObj->raw[freqChannel] = CY_LO16(temp);
1267:Generated_Source\PSoC6/CapSense_Filter.c ****                 #else
1268:Generated_Source\PSoC6/CapSense_Filter.c ****                     temp = ((uint32)ptrSensorObj->raw[freqChannel] +
1269:Generated_Source\PSoC6/CapSense_Filter.c ****                             (uint32)ptrFilterHistObj.ptrRegular->regularChannel[freqChannel].avgHis
1270:Generated_Source\PSoC6/CapSense_Filter.c ****                             (uint32)ptrFilterHistObj.ptrRegular->regularChannel[freqChannel].avgHis
1271:Generated_Source\PSoC6/CapSense_Filter.c ****                             (uint32)ptrFilterHistObj.ptrRegular->regularChannel[freqChannel].avgHis
1272:Generated_Source\PSoC6/CapSense_Filter.c **** 
1273:Generated_Source\PSoC6/CapSense_Filter.c ****                     ptrFilterHistObj.ptrRegular->regularChannel[freqChannel].avgHistory[2u] =
1274:Generated_Source\PSoC6/CapSense_Filter.c ****                     ptrFilterHistObj.ptrRegular->regularChannel[freqChannel].avgHistory[1u];
1275:Generated_Source\PSoC6/CapSense_Filter.c ****                     ptrFilterHistObj.ptrRegular->regularChannel[freqChannel].avgHistory[1u] =
1276:Generated_Source\PSoC6/CapSense_Filter.c ****                     ptrFilterHistObj.ptrRegular->regularChannel[freqChannel].avgHistory[0];
1277:Generated_Source\PSoC6/CapSense_Filter.c ****                     ptrFilterHistObj.ptrRegular->regularChannel[freqChannel].avgHistory[0] = ptrSen
1278:Generated_Source\PSoC6/CapSense_Filter.c ****                     ptrSensorObj->raw[freqChannel] = CY_LO16(temp);
1279:Generated_Source\PSoC6/CapSense_Filter.c ****                 #endif /* CapSense_REGULAR_AVERAGE_LEN == CapSense_AVERAGE_FILTER_LEN_4 */
1280:Generated_Source\PSoC6/CapSense_Filter.c ****             #endif /* (CapSense_REGULAR_SENSOR_EN) */
1281:Generated_Source\PSoC6/CapSense_Filter.c ****         }
1282:Generated_Source\PSoC6/CapSense_Filter.c ****         else
1283:Generated_Source\PSoC6/CapSense_Filter.c ****         {
1284:Generated_Source\PSoC6/CapSense_Filter.c ****             #if (CapSense_PROXIMITY_SENSOR_EN && CapSense_PROX_RC_AVERAGE_FILTER_EN)
1285:Generated_Source\PSoC6/CapSense_Filter.c ****                 #if (CapSense_PROX_AVERAGE_LEN == CapSense_AVERAGE_FILTER_LEN_2)
1286:Generated_Source\PSoC6/CapSense_Filter.c ****                     temp = ((uint32)ptrSensorObj->raw[freqChannel] +
1287:Generated_Source\PSoC6/CapSense_Filter.c ****                             (uint32)ptrFilterHistObj.ptrProx->proxChannel[freqChannel].avgHistory[0
1288:Generated_Source\PSoC6/CapSense_Filter.c ****                     ptrFilterHistObj.ptrProx->proxChannel[freqChannel].avgHistory[0] = ptrSensorObj
1289:Generated_Source\PSoC6/CapSense_Filter.c ****                     ptrSensorObj->raw[freqChannel] = CY_LO16(temp);
1290:Generated_Source\PSoC6/CapSense_Filter.c ****                 #else
1291:Generated_Source\PSoC6/CapSense_Filter.c ****                     temp = ((uint32)ptrSensorObj->raw[freqChannel] +
1292:Generated_Source\PSoC6/CapSense_Filter.c ****                             (uint32)ptrFilterHistObj.ptrProx->proxChannel[freqChannel].avgHistory[0
ARM GAS  C:\Users\DAVIDW~1\AppData\Local\Temp\cc8ZNA3W.s 			page 29


1293:Generated_Source\PSoC6/CapSense_Filter.c ****                             (uint32)ptrFilterHistObj.ptrProx->proxChannel[freqChannel].avgHistory[1
1294:Generated_Source\PSoC6/CapSense_Filter.c ****                             (uint32)ptrFilterHistObj.ptrProx->proxChannel[freqChannel].avgHistory[2
1295:Generated_Source\PSoC6/CapSense_Filter.c **** 
1296:Generated_Source\PSoC6/CapSense_Filter.c ****                     ptrFilterHistObj.ptrProx->proxChannel[freqChannel].avgHistory[2u] =
1297:Generated_Source\PSoC6/CapSense_Filter.c ****                     ptrFilterHistObj.ptrProx->proxChannel[freqChannel].avgHistory[1u];
1298:Generated_Source\PSoC6/CapSense_Filter.c ****                     ptrFilterHistObj.ptrProx->proxChannel[freqChannel].avgHistory[1u] =
1299:Generated_Source\PSoC6/CapSense_Filter.c ****                     ptrFilterHistObj.ptrProx->proxChannel[freqChannel].avgHistory[0];
1300:Generated_Source\PSoC6/CapSense_Filter.c ****                     ptrFilterHistObj.ptrProx->proxChannel[freqChannel].avgHistory[0] = ptrSensorObj
1301:Generated_Source\PSoC6/CapSense_Filter.c ****                     ptrSensorObj->raw[freqChannel] = CY_LO16(temp);
1302:Generated_Source\PSoC6/CapSense_Filter.c ****                 #endif /* CapSense_PROX_AVERAGE_LEN == CapSense_AVERAGE_FILTER_LEN_4 */
1303:Generated_Source\PSoC6/CapSense_Filter.c ****             #endif /* (CapSense_PROXIMITY_SENSOR_EN) */
1304:Generated_Source\PSoC6/CapSense_Filter.c ****         }
1305:Generated_Source\PSoC6/CapSense_Filter.c ****     }
1306:Generated_Source\PSoC6/CapSense_Filter.c **** }
1307:Generated_Source\PSoC6/CapSense_Filter.c **** #endif /* (CapSense_REGULAR_RC_AVERAGE_FILTER_EN || CapSense_PROX_RC_AVERAGE_FILTER_EN) */
1308:Generated_Source\PSoC6/CapSense_Filter.c **** 
1309:Generated_Source\PSoC6/CapSense_Filter.c **** #if (CapSense_ENABLE == CapSense_ALP_FILTER_EN)
1310:Generated_Source\PSoC6/CapSense_Filter.c **** /*******************************************************************************
1311:Generated_Source\PSoC6/CapSense_Filter.c **** * Function Name: CapSense_InitializeALP
1312:Generated_Source\PSoC6/CapSense_Filter.c **** ****************************************************************************//**
1313:Generated_Source\PSoC6/CapSense_Filter.c **** *
1314:Generated_Source\PSoC6/CapSense_Filter.c **** * \brief    Initializes the ALP filter history.
1315:Generated_Source\PSoC6/CapSense_Filter.c **** *
1316:Generated_Source\PSoC6/CapSense_Filter.c **** * \details  Initializes the ALP filter history.
1317:Generated_Source\PSoC6/CapSense_Filter.c **** *
1318:Generated_Source\PSoC6/CapSense_Filter.c **** * \param    widgetId Specifies the ID number of the widget.
1319:Generated_Source\PSoC6/CapSense_Filter.c **** * \param    sensorId Specifies the ID number of the sensor in the widget.
1320:Generated_Source\PSoC6/CapSense_Filter.c **** *
1321:Generated_Source\PSoC6/CapSense_Filter.c **** *******************************************************************************/
1322:Generated_Source\PSoC6/CapSense_Filter.c **** void CapSense_InitializeALP(uint32 widgetId, uint32 sensorId)
1323:Generated_Source\PSoC6/CapSense_Filter.c **** {
1324:Generated_Source\PSoC6/CapSense_Filter.c ****     CapSense_FLASH_WD_STRUCT const *ptrWidget = &CapSense_dsFlash.wdgtArray[widgetId];
1325:Generated_Source\PSoC6/CapSense_Filter.c ****     CapSense_RAM_SNS_STRUCT *ptrSensor = NULL;
1326:Generated_Source\PSoC6/CapSense_Filter.c ****     CapSense_PTR_FILTER_VARIANT ptrFilterHistObj;
1327:Generated_Source\PSoC6/CapSense_Filter.c **** 
1328:Generated_Source\PSoC6/CapSense_Filter.c ****     /* Find pointer to specified sensor object */
1329:Generated_Source\PSoC6/CapSense_Filter.c ****     ptrSensor = ptrWidget->ptr2SnsRam;
1330:Generated_Source\PSoC6/CapSense_Filter.c ****     ptrSensor = &ptrSensor[sensorId];
1331:Generated_Source\PSoC6/CapSense_Filter.c **** 
1332:Generated_Source\PSoC6/CapSense_Filter.c ****     /* Find pointer to specified filter sensor object */
1333:Generated_Source\PSoC6/CapSense_Filter.c ****     ptrFilterHistObj.ptr = ptrWidget->ptr2FltrHistory;
1334:Generated_Source\PSoC6/CapSense_Filter.c ****     ptrFilterHistObj.ptrAlp = &ptrFilterHistObj.ptrAlp[sensorId];
1335:Generated_Source\PSoC6/CapSense_Filter.c ****     CapSense_InitializeALPInternal(ptrFilterHistObj, ptrSensor, (uint32)ptrWidget->wdgtType);
1336:Generated_Source\PSoC6/CapSense_Filter.c **** }
1337:Generated_Source\PSoC6/CapSense_Filter.c **** 
1338:Generated_Source\PSoC6/CapSense_Filter.c **** 
1339:Generated_Source\PSoC6/CapSense_Filter.c **** /*******************************************************************************
1340:Generated_Source\PSoC6/CapSense_Filter.c **** * Function Name: CapSense_RunALP
1341:Generated_Source\PSoC6/CapSense_Filter.c **** ****************************************************************************//**
1342:Generated_Source\PSoC6/CapSense_Filter.c **** *
1343:Generated_Source\PSoC6/CapSense_Filter.c **** * \brief    Executes the ALP filter algorithm on a sensor indicated by an input
1344:Generated_Source\PSoC6/CapSense_Filter.c **** *           parameter.
1345:Generated_Source\PSoC6/CapSense_Filter.c **** *
1346:Generated_Source\PSoC6/CapSense_Filter.c **** * \details  Executes the ALP filter algorithm on a sensor indicated by an input
1347:Generated_Source\PSoC6/CapSense_Filter.c **** *           parameter.
1348:Generated_Source\PSoC6/CapSense_Filter.c **** *
1349:Generated_Source\PSoC6/CapSense_Filter.c **** * \param    widgetId Specifies the ID number of the widget.
ARM GAS  C:\Users\DAVIDW~1\AppData\Local\Temp\cc8ZNA3W.s 			page 30


1350:Generated_Source\PSoC6/CapSense_Filter.c **** * \param    sensorId Specifies the ID number of the sensor in the widget.
1351:Generated_Source\PSoC6/CapSense_Filter.c **** *
1352:Generated_Source\PSoC6/CapSense_Filter.c **** *******************************************************************************/
1353:Generated_Source\PSoC6/CapSense_Filter.c **** void CapSense_RunALP(uint32 widgetId, uint32 sensorId)
1354:Generated_Source\PSoC6/CapSense_Filter.c **** {
1355:Generated_Source\PSoC6/CapSense_Filter.c ****     CapSense_FLASH_WD_STRUCT const *ptrWidget = &CapSense_dsFlash.wdgtArray[widgetId];
1356:Generated_Source\PSoC6/CapSense_Filter.c ****     CapSense_RAM_SNS_STRUCT *ptrSensor = NULL;
1357:Generated_Source\PSoC6/CapSense_Filter.c ****     CapSense_PTR_FILTER_VARIANT ptrFilterHistObj;
1358:Generated_Source\PSoC6/CapSense_Filter.c ****     ALP_FLTR_CONFIG_STRUCT alpFilterConfig;
1359:Generated_Source\PSoC6/CapSense_Filter.c ****     ALP_FLTR_CONFIG_STRUCT *ptrAlpFilterConfig = &alpFilterConfig;
1360:Generated_Source\PSoC6/CapSense_Filter.c ****     CapSense_RAM_WD_BASE_STRUCT *ptrRamWidget = ptrWidget->ptr2WdgtRam;
1361:Generated_Source\PSoC6/CapSense_Filter.c **** 
1362:Generated_Source\PSoC6/CapSense_Filter.c ****     /* Find pointer to specified sensor object */
1363:Generated_Source\PSoC6/CapSense_Filter.c ****     ptrSensor = ptrWidget->ptr2SnsRam;
1364:Generated_Source\PSoC6/CapSense_Filter.c ****     ptrSensor = &ptrSensor[sensorId];
1365:Generated_Source\PSoC6/CapSense_Filter.c **** 
1366:Generated_Source\PSoC6/CapSense_Filter.c ****     ptrAlpFilterConfig->configParam0 = ptrRamWidget->alpOnTh;
1367:Generated_Source\PSoC6/CapSense_Filter.c ****     ptrAlpFilterConfig->configParam1 = ptrRamWidget->alpOffTh;
1368:Generated_Source\PSoC6/CapSense_Filter.c ****     ptrAlpFilterConfig->configParam2 = ptrRamWidget->fingerTh;
1369:Generated_Source\PSoC6/CapSense_Filter.c ****     ptrAlpFilterConfig->configParam3 = ptrRamWidget->noiseTh;
1370:Generated_Source\PSoC6/CapSense_Filter.c ****     ptrAlpFilterConfig->configParam4 = ptrRamWidget->hysteresis;
1371:Generated_Source\PSoC6/CapSense_Filter.c **** 
1372:Generated_Source\PSoC6/CapSense_Filter.c ****     /* Find pointer to specified filter sensor object */
1373:Generated_Source\PSoC6/CapSense_Filter.c ****     ptrFilterHistObj.ptr = ptrWidget->ptr2FltrHistory;
1374:Generated_Source\PSoC6/CapSense_Filter.c ****     ptrFilterHistObj.ptrAlp = &ptrFilterHistObj.ptrAlp[sensorId];
1375:Generated_Source\PSoC6/CapSense_Filter.c **** 
1376:Generated_Source\PSoC6/CapSense_Filter.c ****     if ((CapSense_WD_TYPE_ENUM)ptrWidget->wdgtType != CapSense_WD_PROXIMITY_E)
1377:Generated_Source\PSoC6/CapSense_Filter.c ****     {
1378:Generated_Source\PSoC6/CapSense_Filter.c ****         #if (CapSense_REGULAR_SENSOR_EN)
1379:Generated_Source\PSoC6/CapSense_Filter.c ****             ptrAlpFilterConfig->configParam5 = CapSense_REGULAR_RC_ALP_FILTER_COEFF;
1380:Generated_Source\PSoC6/CapSense_Filter.c ****         #endif /* (CapSense_REGULAR_SENSOR_EN) */
1381:Generated_Source\PSoC6/CapSense_Filter.c ****     }
1382:Generated_Source\PSoC6/CapSense_Filter.c ****     else
1383:Generated_Source\PSoC6/CapSense_Filter.c ****     {
1384:Generated_Source\PSoC6/CapSense_Filter.c ****         #if (CapSense_PROXIMITY_SENSOR_EN)
1385:Generated_Source\PSoC6/CapSense_Filter.c ****             ptrAlpFilterConfig->configParam5 = CapSense_PROX_RC_ALP_FILTER_COEFF;
1386:Generated_Source\PSoC6/CapSense_Filter.c ****         #endif /* (CapSense_PROXIMITY_SENSOR_EN) */
1387:Generated_Source\PSoC6/CapSense_Filter.c ****     }
1388:Generated_Source\PSoC6/CapSense_Filter.c ****     CapSense_RunALPInternal(ptrFilterHistObj, ptrAlpFilterConfig, ptrSensor, (uint32)ptrWidget->wdg
1389:Generated_Source\PSoC6/CapSense_Filter.c **** }
1390:Generated_Source\PSoC6/CapSense_Filter.c **** 
1391:Generated_Source\PSoC6/CapSense_Filter.c **** 
1392:Generated_Source\PSoC6/CapSense_Filter.c **** /*******************************************************************************
1393:Generated_Source\PSoC6/CapSense_Filter.c **** * Function Name: CapSense_InitializeALPInternal
1394:Generated_Source\PSoC6/CapSense_Filter.c **** ****************************************************************************//**
1395:Generated_Source\PSoC6/CapSense_Filter.c **** *
1396:Generated_Source\PSoC6/CapSense_Filter.c **** * \brief    Initializes the ALP filter.
1397:Generated_Source\PSoC6/CapSense_Filter.c **** *
1398:Generated_Source\PSoC6/CapSense_Filter.c **** * \details  Initializes the ALP filter.
1399:Generated_Source\PSoC6/CapSense_Filter.c **** *
1400:Generated_Source\PSoC6/CapSense_Filter.c **** * \param    ptrFilterHistObj The pointer to the filter RAM object of the sensor.
1401:Generated_Source\PSoC6/CapSense_Filter.c **** * \param    ptrSensorObj     The pointer to the sensor RAM object of the sensor.
1402:Generated_Source\PSoC6/CapSense_Filter.c **** * \param    wdType           Specifies the type of a widget.
1403:Generated_Source\PSoC6/CapSense_Filter.c **** *
1404:Generated_Source\PSoC6/CapSense_Filter.c **** *******************************************************************************/
1405:Generated_Source\PSoC6/CapSense_Filter.c **** void CapSense_InitializeALPInternal(CapSense_PTR_FILTER_VARIANT ptrFilterHistObj,
1406:Generated_Source\PSoC6/CapSense_Filter.c ****                                             CapSense_RAM_SNS_STRUCT *ptrSensorObj,
ARM GAS  C:\Users\DAVIDW~1\AppData\Local\Temp\cc8ZNA3W.s 			page 31


1407:Generated_Source\PSoC6/CapSense_Filter.c ****                                             uint32 wdType)
1408:Generated_Source\PSoC6/CapSense_Filter.c **** {
1409:Generated_Source\PSoC6/CapSense_Filter.c ****     uint32 freqChannel;
1410:Generated_Source\PSoC6/CapSense_Filter.c **** 
1411:Generated_Source\PSoC6/CapSense_Filter.c ****     for(freqChannel = CapSense_NUM_SCAN_FREQS; freqChannel-- > 0u;)
1412:Generated_Source\PSoC6/CapSense_Filter.c ****     {
1413:Generated_Source\PSoC6/CapSense_Filter.c ****         if ((CapSense_WD_TYPE_ENUM)wdType != CapSense_WD_PROXIMITY_E)
1414:Generated_Source\PSoC6/CapSense_Filter.c ****         {
1415:Generated_Source\PSoC6/CapSense_Filter.c ****             #if (CapSense_REGULAR_SENSOR_EN && CapSense_REGULAR_RC_ALP_FILTER_EN)
1416:Generated_Source\PSoC6/CapSense_Filter.c ****                 ALP_Initialize(&ptrFilterHistObj.ptrAlp->channel[freqChannel], &ptrSensorObj->raw[f
1417:Generated_Source\PSoC6/CapSense_Filter.c ****             #endif
1418:Generated_Source\PSoC6/CapSense_Filter.c ****         }
1419:Generated_Source\PSoC6/CapSense_Filter.c ****         else
1420:Generated_Source\PSoC6/CapSense_Filter.c ****         {
1421:Generated_Source\PSoC6/CapSense_Filter.c ****             #if (CapSense_PROXIMITY_SENSOR_EN && CapSense_PROX_RC_ALP_FILTER_EN)
1422:Generated_Source\PSoC6/CapSense_Filter.c ****                 ALP_Initialize(&ptrFilterHistObj.ptrAlp->channel[freqChannel], &ptrSensorObj->raw[f
1423:Generated_Source\PSoC6/CapSense_Filter.c ****             #endif
1424:Generated_Source\PSoC6/CapSense_Filter.c ****         }
1425:Generated_Source\PSoC6/CapSense_Filter.c ****     }
1426:Generated_Source\PSoC6/CapSense_Filter.c **** }
1427:Generated_Source\PSoC6/CapSense_Filter.c **** 
1428:Generated_Source\PSoC6/CapSense_Filter.c **** /*******************************************************************************
1429:Generated_Source\PSoC6/CapSense_Filter.c **** * Function Name: CapSense_ConfigRunALPInternal
1430:Generated_Source\PSoC6/CapSense_Filter.c **** ****************************************************************************//**
1431:Generated_Source\PSoC6/CapSense_Filter.c **** *
1432:Generated_Source\PSoC6/CapSense_Filter.c **** * \brief    Prepares ALP configuration structure and runs the filter.
1433:Generated_Source\PSoC6/CapSense_Filter.c **** *
1434:Generated_Source\PSoC6/CapSense_Filter.c **** * \details  Prepares ALP configuration structure and runs the filter.
1435:Generated_Source\PSoC6/CapSense_Filter.c **** *
1436:Generated_Source\PSoC6/CapSense_Filter.c **** * \param    ptrFilterHistObj The pointer to the filter RAM object of the sensor.
1437:Generated_Source\PSoC6/CapSense_Filter.c **** * \param    ptrRamWdgt       The pointer to the RAM widget object.
1438:Generated_Source\PSoC6/CapSense_Filter.c **** * \param    ptrSensorObj     The pointer to the sensor RAM object of the sensor.
1439:Generated_Source\PSoC6/CapSense_Filter.c **** * \param    wdType           Specifies the type of a widget.
1440:Generated_Source\PSoC6/CapSense_Filter.c **** *
1441:Generated_Source\PSoC6/CapSense_Filter.c **** *******************************************************************************/
1442:Generated_Source\PSoC6/CapSense_Filter.c **** void CapSense_ConfigRunALPInternal(CapSense_PTR_FILTER_VARIANT ptrFilterHistObj,
1443:Generated_Source\PSoC6/CapSense_Filter.c ****                                     CapSense_RAM_WD_BASE_STRUCT *ptrRamWdgt,
1444:Generated_Source\PSoC6/CapSense_Filter.c ****                                     CapSense_RAM_SNS_STRUCT *ptrSensorObj,
1445:Generated_Source\PSoC6/CapSense_Filter.c ****                                     uint32 wdType)
1446:Generated_Source\PSoC6/CapSense_Filter.c **** {
1447:Generated_Source\PSoC6/CapSense_Filter.c ****     ALP_FLTR_CONFIG_STRUCT alpFilterConfig;
1448:Generated_Source\PSoC6/CapSense_Filter.c **** 
1449:Generated_Source\PSoC6/CapSense_Filter.c ****     alpFilterConfig.configParam0 = ptrRamWdgt->alpOnTh;
1450:Generated_Source\PSoC6/CapSense_Filter.c ****     alpFilterConfig.configParam1 = ptrRamWdgt->alpOffTh;
1451:Generated_Source\PSoC6/CapSense_Filter.c ****     alpFilterConfig.configParam2 = ptrRamWdgt->fingerTh;
1452:Generated_Source\PSoC6/CapSense_Filter.c ****     alpFilterConfig.configParam3 = ptrRamWdgt->noiseTh;
1453:Generated_Source\PSoC6/CapSense_Filter.c ****     alpFilterConfig.configParam4 = ptrRamWdgt->hysteresis;
1454:Generated_Source\PSoC6/CapSense_Filter.c **** 
1455:Generated_Source\PSoC6/CapSense_Filter.c ****     CapSense_RunALPInternal(ptrFilterHistObj, &alpFilterConfig, ptrSensorObj, wdType);
1456:Generated_Source\PSoC6/CapSense_Filter.c **** }
1457:Generated_Source\PSoC6/CapSense_Filter.c **** 
1458:Generated_Source\PSoC6/CapSense_Filter.c **** /*******************************************************************************
1459:Generated_Source\PSoC6/CapSense_Filter.c **** * Function Name: CapSense_RunALPInternal
1460:Generated_Source\PSoC6/CapSense_Filter.c **** ****************************************************************************//**
1461:Generated_Source\PSoC6/CapSense_Filter.c **** *
1462:Generated_Source\PSoC6/CapSense_Filter.c **** * \brief    Runs the ALP filter.
1463:Generated_Source\PSoC6/CapSense_Filter.c **** *
ARM GAS  C:\Users\DAVIDW~1\AppData\Local\Temp\cc8ZNA3W.s 			page 32


1464:Generated_Source\PSoC6/CapSense_Filter.c **** * \details  Runs the ALP filter.
1465:Generated_Source\PSoC6/CapSense_Filter.c **** *
1466:Generated_Source\PSoC6/CapSense_Filter.c **** * \param    ptrFilterHistObj The pointer to the filter RAM object of the sensor.
1467:Generated_Source\PSoC6/CapSense_Filter.c **** * \param    ptrAlpFilterConfig The pointer to the filter configuration object of the sensor.
1468:Generated_Source\PSoC6/CapSense_Filter.c **** * \param    ptrSensorObj     The pointer to the sensor RAM object of the sensor.
1469:Generated_Source\PSoC6/CapSense_Filter.c **** * \param    wdType           Specifies the type of a widget.
1470:Generated_Source\PSoC6/CapSense_Filter.c **** *
1471:Generated_Source\PSoC6/CapSense_Filter.c **** *******************************************************************************/
1472:Generated_Source\PSoC6/CapSense_Filter.c **** void CapSense_RunALPInternal(CapSense_PTR_FILTER_VARIANT ptrFilterHistObj,
1473:Generated_Source\PSoC6/CapSense_Filter.c ****                                     ALP_FLTR_CONFIG_STRUCT *ptrAlpFilterConfig,
1474:Generated_Source\PSoC6/CapSense_Filter.c ****                                     CapSense_RAM_SNS_STRUCT *ptrSensorObj,
1475:Generated_Source\PSoC6/CapSense_Filter.c ****                                     uint32 wdType)
1476:Generated_Source\PSoC6/CapSense_Filter.c **** {
1477:Generated_Source\PSoC6/CapSense_Filter.c ****     uint32 freqChannel;
1478:Generated_Source\PSoC6/CapSense_Filter.c **** 
1479:Generated_Source\PSoC6/CapSense_Filter.c ****     for(freqChannel = CapSense_NUM_SCAN_FREQS; freqChannel-- > 0u;)
1480:Generated_Source\PSoC6/CapSense_Filter.c ****     {
1481:Generated_Source\PSoC6/CapSense_Filter.c ****         if ((CapSense_WD_TYPE_ENUM)wdType != CapSense_WD_PROXIMITY_E)
1482:Generated_Source\PSoC6/CapSense_Filter.c ****         {
1483:Generated_Source\PSoC6/CapSense_Filter.c ****             #if (CapSense_REGULAR_SENSOR_EN && CapSense_REGULAR_RC_ALP_FILTER_EN)
1484:Generated_Source\PSoC6/CapSense_Filter.c ****                 ptrAlpFilterConfig->configParam5 = CapSense_REGULAR_RC_ALP_FILTER_COEFF;
1485:Generated_Source\PSoC6/CapSense_Filter.c ****                 ALP_Run(&ptrFilterHistObj.ptrAlp->channel[freqChannel], ptrAlpFilterConfig, &ptrSen
1486:Generated_Source\PSoC6/CapSense_Filter.c ****             #endif
1487:Generated_Source\PSoC6/CapSense_Filter.c ****         }
1488:Generated_Source\PSoC6/CapSense_Filter.c ****         else
1489:Generated_Source\PSoC6/CapSense_Filter.c ****         {
1490:Generated_Source\PSoC6/CapSense_Filter.c ****             #if (CapSense_PROXIMITY_SENSOR_EN && CapSense_PROX_RC_ALP_FILTER_EN)
1491:Generated_Source\PSoC6/CapSense_Filter.c ****                 ptrAlpFilterConfig->configParam5 = CapSense_PROX_RC_ALP_FILTER_COEFF;
1492:Generated_Source\PSoC6/CapSense_Filter.c ****                 ALP_Run(&ptrFilterHistObj.ptrAlp->channel[freqChannel], ptrAlpFilterConfig, &ptrSen
1493:Generated_Source\PSoC6/CapSense_Filter.c ****             #endif
1494:Generated_Source\PSoC6/CapSense_Filter.c ****         }
1495:Generated_Source\PSoC6/CapSense_Filter.c ****     }
1496:Generated_Source\PSoC6/CapSense_Filter.c **** }
1497:Generated_Source\PSoC6/CapSense_Filter.c **** #endif /* (CapSense_ENABLE == CapSense_ALP_FILTER_EN) */
1498:Generated_Source\PSoC6/CapSense_Filter.c **** 
1499:Generated_Source\PSoC6/CapSense_Filter.c **** #if (CapSense_ENABLE == CapSense_RC_FILTER_EN)
1500:Generated_Source\PSoC6/CapSense_Filter.c **** /*******************************************************************************
1501:Generated_Source\PSoC6/CapSense_Filter.c **** * Function Name: CapSense_FtRunEnabledFilters
1502:Generated_Source\PSoC6/CapSense_Filter.c **** ****************************************************************************//**
1503:Generated_Source\PSoC6/CapSense_Filter.c **** *
1504:Generated_Source\PSoC6/CapSense_Filter.c **** * \brief    Runs all enabled filters.
1505:Generated_Source\PSoC6/CapSense_Filter.c **** *
1506:Generated_Source\PSoC6/CapSense_Filter.c **** * \details  Runs all enabled filters.
1507:Generated_Source\PSoC6/CapSense_Filter.c **** *
1508:Generated_Source\PSoC6/CapSense_Filter.c **** * \param    widgetId Specifies the ID number of a widget to update the IIR filter history.*
1509:Generated_Source\PSoC6/CapSense_Filter.c **** * \param    sensorId Specifies the ID number of a sensor in the widget to update the IIR
1510:Generated_Source\PSoC6/CapSense_Filter.c **** *           filter history.
1511:Generated_Source\PSoC6/CapSense_Filter.c **** *
1512:Generated_Source\PSoC6/CapSense_Filter.c **** *******************************************************************************/
1513:Generated_Source\PSoC6/CapSense_Filter.c **** void CapSense_FtRunEnabledFilters(uint32 widgetId, uint32 sensorId)
1514:Generated_Source\PSoC6/CapSense_Filter.c **** {
1515:Generated_Source\PSoC6/CapSense_Filter.c ****     CapSense_FLASH_WD_STRUCT const *ptrWidget = &CapSense_dsFlash.wdgtArray[widgetId];
1516:Generated_Source\PSoC6/CapSense_Filter.c ****     CapSense_RAM_SNS_STRUCT *ptrSensor = NULL;
1517:Generated_Source\PSoC6/CapSense_Filter.c ****     CapSense_PTR_FILTER_VARIANT ptrFilterHistObj;
1518:Generated_Source\PSoC6/CapSense_Filter.c **** 
1519:Generated_Source\PSoC6/CapSense_Filter.c ****     /* Find pointer to specified sensor object */
1520:Generated_Source\PSoC6/CapSense_Filter.c ****     ptrSensor = ptrWidget->ptr2SnsRam;
ARM GAS  C:\Users\DAVIDW~1\AppData\Local\Temp\cc8ZNA3W.s 			page 33


1521:Generated_Source\PSoC6/CapSense_Filter.c ****     ptrSensor = &ptrSensor[sensorId];
1522:Generated_Source\PSoC6/CapSense_Filter.c **** 
1523:Generated_Source\PSoC6/CapSense_Filter.c ****     /* Find pointer to specified filter sensor object */
1524:Generated_Source\PSoC6/CapSense_Filter.c ****     ptrFilterHistObj.ptr = ptrWidget->ptr2FltrHistory;
1525:Generated_Source\PSoC6/CapSense_Filter.c **** 
1526:Generated_Source\PSoC6/CapSense_Filter.c ****     if ((CapSense_WD_TYPE_ENUM)ptrWidget->wdgtType != CapSense_WD_PROXIMITY_E)
1527:Generated_Source\PSoC6/CapSense_Filter.c ****     {
1528:Generated_Source\PSoC6/CapSense_Filter.c ****         #if (0u != CapSense_REGULAR_RC_ALP_FILTER_EN)
1529:Generated_Source\PSoC6/CapSense_Filter.c ****             ptrFilterHistObj.ptr = &ptrFilterHistObj.ptrAlp[sensorId];
1530:Generated_Source\PSoC6/CapSense_Filter.c ****         #elif (0u != CapSense_REGULAR_RC_FILTER_EN)
1531:Generated_Source\PSoC6/CapSense_Filter.c ****             ptrFilterHistObj.ptr = &ptrFilterHistObj.ptrRegular[sensorId];
1532:Generated_Source\PSoC6/CapSense_Filter.c ****         #endif
1533:Generated_Source\PSoC6/CapSense_Filter.c ****     }
1534:Generated_Source\PSoC6/CapSense_Filter.c ****     else
1535:Generated_Source\PSoC6/CapSense_Filter.c ****     {
1536:Generated_Source\PSoC6/CapSense_Filter.c ****         #if (0u != CapSense_PROX_RC_ALP_FILTER_EN)
1537:Generated_Source\PSoC6/CapSense_Filter.c ****             ptrFilterHistObj.ptr = &ptrFilterHistObj.ptrAlp[sensorId];
1538:Generated_Source\PSoC6/CapSense_Filter.c ****         #elif (0u != CapSense_PROX_RC_FILTER_EN)
1539:Generated_Source\PSoC6/CapSense_Filter.c ****             ptrFilterHistObj.ptr = &ptrFilterHistObj.ptrProx[sensorId];
1540:Generated_Source\PSoC6/CapSense_Filter.c ****         #endif
1541:Generated_Source\PSoC6/CapSense_Filter.c ****     }
1542:Generated_Source\PSoC6/CapSense_Filter.c **** 
1543:Generated_Source\PSoC6/CapSense_Filter.c ****     CapSense_FtRunEnabledFiltersInternal(ptrFilterHistObj, ptrSensor, (uint32)ptrWidget->wdgtType);
1544:Generated_Source\PSoC6/CapSense_Filter.c ****     #if (CapSense_ALP_FILTER_EN)
1545:Generated_Source\PSoC6/CapSense_Filter.c ****         CapSense_ConfigRunALPInternal(ptrFilterHistObj, ptrWidget->ptr2WdgtRam, ptrSensor, (uint32)
1546:Generated_Source\PSoC6/CapSense_Filter.c ****     #endif
1547:Generated_Source\PSoC6/CapSense_Filter.c **** }
1548:Generated_Source\PSoC6/CapSense_Filter.c **** 
1549:Generated_Source\PSoC6/CapSense_Filter.c **** 
1550:Generated_Source\PSoC6/CapSense_Filter.c **** /*******************************************************************************
1551:Generated_Source\PSoC6/CapSense_Filter.c **** * Function Name: CapSense_FtRunEnabledFiltersInternal
1552:Generated_Source\PSoC6/CapSense_Filter.c **** ****************************************************************************//**
1553:Generated_Source\PSoC6/CapSense_Filter.c **** *
1554:Generated_Source\PSoC6/CapSense_Filter.c **** * \brief    Runs all enabled filters.
1555:Generated_Source\PSoC6/CapSense_Filter.c **** *
1556:Generated_Source\PSoC6/CapSense_Filter.c **** * \details  Runs all enabled filters.
1557:Generated_Source\PSoC6/CapSense_Filter.c **** *
1558:Generated_Source\PSoC6/CapSense_Filter.c **** * \param    ptrFilterHistObj The pointer to the filter RAM object of the sensor.
1559:Generated_Source\PSoC6/CapSense_Filter.c **** * \param    ptrSensorObj     The pointer to the sensor RAM object of the sensor.
1560:Generated_Source\PSoC6/CapSense_Filter.c **** * \param    wdType           Specifies the type of a widget.
1561:Generated_Source\PSoC6/CapSense_Filter.c **** *
1562:Generated_Source\PSoC6/CapSense_Filter.c **** *******************************************************************************/
1563:Generated_Source\PSoC6/CapSense_Filter.c **** void CapSense_FtRunEnabledFiltersInternal(CapSense_PTR_FILTER_VARIANT ptrFilterHistObj,
1564:Generated_Source\PSoC6/CapSense_Filter.c ****                                                   CapSense_RAM_SNS_STRUCT *ptrSensorObj, uint32 wdT
1565:Generated_Source\PSoC6/CapSense_Filter.c **** {
1566:Generated_Source\PSoC6/CapSense_Filter.c ****     #if (CapSense_REGULAR_RC_MEDIAN_FILTER_EN || CapSense_PROX_RC_MEDIAN_FILTER_EN)
1567:Generated_Source\PSoC6/CapSense_Filter.c ****         CapSense_RunMedianInternal(ptrFilterHistObj, ptrSensorObj, wdType);
1568:Generated_Source\PSoC6/CapSense_Filter.c ****     #endif /* (CapSense_REGULAR_RC_MEDIAN_FILTER_EN || CapSense_PROX_RC_MEDIAN_FILTER_EN) */
1569:Generated_Source\PSoC6/CapSense_Filter.c **** 
1570:Generated_Source\PSoC6/CapSense_Filter.c ****     #if (CapSense_REGULAR_RC_IIR_FILTER_EN || CapSense_PROX_RC_IIR_FILTER_EN)
1571:Generated_Source\PSoC6/CapSense_Filter.c ****         CapSense_RunIIRInternal(ptrFilterHistObj, ptrSensorObj, wdType);
1572:Generated_Source\PSoC6/CapSense_Filter.c ****     #endif /* (CapSense_REGULAR_RC_IIR_FILTER_EN || CapSense_PROX_RC_IIR_FILTER_EN) */
1573:Generated_Source\PSoC6/CapSense_Filter.c **** 
1574:Generated_Source\PSoC6/CapSense_Filter.c ****     #if (CapSense_REGULAR_RC_AVERAGE_FILTER_EN || CapSense_PROX_RC_AVERAGE_FILTER_EN)
1575:Generated_Source\PSoC6/CapSense_Filter.c ****         CapSense_RunAverageInternal(ptrFilterHistObj, ptrSensorObj, wdType);
1576:Generated_Source\PSoC6/CapSense_Filter.c ****     #endif /* (CapSense_REGULAR_RC_AVERAGE_FILTER_EN || CapSense_PROX_RC_AVERAGE_FILTER_EN) */
1577:Generated_Source\PSoC6/CapSense_Filter.c **** }
ARM GAS  C:\Users\DAVIDW~1\AppData\Local\Temp\cc8ZNA3W.s 			page 34


1578:Generated_Source\PSoC6/CapSense_Filter.c **** #endif /* (CapSense_ENABLE == CapSense_RC_FILTER_EN) */
1579:Generated_Source\PSoC6/CapSense_Filter.c **** 
1580:Generated_Source\PSoC6/CapSense_Filter.c **** 
1581:Generated_Source\PSoC6/CapSense_Filter.c **** #if (0u != (CapSense_CSD_AUTOTUNE & CapSense_CSD_SS_TH_EN))
1582:Generated_Source\PSoC6/CapSense_Filter.c **** /*******************************************************************************
1583:Generated_Source\PSoC6/CapSense_Filter.c **** * Function Name: CapSense_RunNoiseEnvelope
1584:Generated_Source\PSoC6/CapSense_Filter.c **** ****************************************************************************//**
1585:Generated_Source\PSoC6/CapSense_Filter.c **** *
1586:Generated_Source\PSoC6/CapSense_Filter.c **** * \brief    Executes the noise envelope  filter algorithm on a sensor indicated by
1587:Generated_Source\PSoC6/CapSense_Filter.c **** *           an input parameter to measure the pk-to-pk noise in the sensor raw count.
1588:Generated_Source\PSoC6/CapSense_Filter.c **** *
1589:Generated_Source\PSoC6/CapSense_Filter.c **** * \details  Executes the noise envelope  filter algorithm on a sensor indicated by
1590:Generated_Source\PSoC6/CapSense_Filter.c **** *           an input parameter to measure the pk-to-pk noise in the sensor raw count.
1591:Generated_Source\PSoC6/CapSense_Filter.c **** *
1592:Generated_Source\PSoC6/CapSense_Filter.c **** * \param    widgetId Specifies the ID number of the widget.
1593:Generated_Source\PSoC6/CapSense_Filter.c **** * \param    sensorId Specifies the ID number of the sensor in the widget.
1594:Generated_Source\PSoC6/CapSense_Filter.c **** *
1595:Generated_Source\PSoC6/CapSense_Filter.c **** *******************************************************************************/
1596:Generated_Source\PSoC6/CapSense_Filter.c **** void CapSense_RunNoiseEnvelope(uint32 widgetId, uint32 sensorId)
1597:Generated_Source\PSoC6/CapSense_Filter.c **** {
1598:Generated_Source\PSoC6/CapSense_Filter.c ****     CapSense_FLASH_WD_STRUCT const *ptrWidget = &CapSense_dsFlash.wdgtArray[widgetId];
1599:Generated_Source\PSoC6/CapSense_Filter.c ****     CapSense_RAM_WD_BASE_STRUCT *ptrWidgetRam = ptrWidget->ptr2WdgtRam;
1600:Generated_Source\PSoC6/CapSense_Filter.c ****     CapSense_RAM_SNS_STRUCT *ptrSensor = NULL;
1601:Generated_Source\PSoC6/CapSense_Filter.c ****     SMARTSENSE_CSD_NOISE_ENVELOPE_STRUCT *ptrNoiseEnvelope = NULL;
1602:Generated_Source\PSoC6/CapSense_Filter.c **** 
1603:Generated_Source\PSoC6/CapSense_Filter.c ****     /* Find pointer to specified sensor object */
1604:Generated_Source\PSoC6/CapSense_Filter.c ****     ptrSensor = ptrWidget->ptr2SnsRam;
1605:Generated_Source\PSoC6/CapSense_Filter.c ****     ptrSensor = &ptrSensor[sensorId];
1606:Generated_Source\PSoC6/CapSense_Filter.c **** 
1607:Generated_Source\PSoC6/CapSense_Filter.c ****     /* Find pointer to specified filter sensor object */
1608:Generated_Source\PSoC6/CapSense_Filter.c ****     ptrNoiseEnvelope = ptrWidget->ptr2NoiseEnvlp;
1609:Generated_Source\PSoC6/CapSense_Filter.c ****     ptrNoiseEnvelope = &ptrNoiseEnvelope[sensorId];
1610:Generated_Source\PSoC6/CapSense_Filter.c **** 
1611:Generated_Source\PSoC6/CapSense_Filter.c ****     SmartSense_RunNoiseEnvelope(ptrSensor->raw[0u], ptrWidgetRam->sigPFC, ptrNoiseEnvelope);
1612:Generated_Source\PSoC6/CapSense_Filter.c **** }
1613:Generated_Source\PSoC6/CapSense_Filter.c **** 
1614:Generated_Source\PSoC6/CapSense_Filter.c **** 
1615:Generated_Source\PSoC6/CapSense_Filter.c **** /*******************************************************************************
1616:Generated_Source\PSoC6/CapSense_Filter.c **** * Function Name: CapSense_InitializeNoiseEnvelope
1617:Generated_Source\PSoC6/CapSense_Filter.c **** ****************************************************************************//**
1618:Generated_Source\PSoC6/CapSense_Filter.c **** *
1619:Generated_Source\PSoC6/CapSense_Filter.c **** * \brief    Initializes the noise-envelope filter
1620:Generated_Source\PSoC6/CapSense_Filter.c **** *
1621:Generated_Source\PSoC6/CapSense_Filter.c **** * \details  Initializes the noise-envelope filter
1622:Generated_Source\PSoC6/CapSense_Filter.c **** *
1623:Generated_Source\PSoC6/CapSense_Filter.c **** * \param    widgetId Specifies the ID number of the widget.
1624:Generated_Source\PSoC6/CapSense_Filter.c **** * \param    sensorId Specifies the ID number of the sensor in the widget.
1625:Generated_Source\PSoC6/CapSense_Filter.c **** *
1626:Generated_Source\PSoC6/CapSense_Filter.c **** *******************************************************************************/
1627:Generated_Source\PSoC6/CapSense_Filter.c **** void CapSense_InitializeNoiseEnvelope(uint32 widgetId, uint32 sensorId)
1628:Generated_Source\PSoC6/CapSense_Filter.c **** {
1629:Generated_Source\PSoC6/CapSense_Filter.c ****     CapSense_FLASH_WD_STRUCT const *ptrWidget = &CapSense_dsFlash.wdgtArray[widgetId];
1630:Generated_Source\PSoC6/CapSense_Filter.c ****     CapSense_RAM_WD_BASE_STRUCT *ptrWidgetRam = ptrWidget->ptr2WdgtRam;
1631:Generated_Source\PSoC6/CapSense_Filter.c ****     CapSense_RAM_SNS_STRUCT *ptrSensor = NULL;
1632:Generated_Source\PSoC6/CapSense_Filter.c ****     SMARTSENSE_CSD_NOISE_ENVELOPE_STRUCT *ptrNoiseEnvelope = NULL;
1633:Generated_Source\PSoC6/CapSense_Filter.c **** 
1634:Generated_Source\PSoC6/CapSense_Filter.c ****     /* Find pointer to specified sensor object */
ARM GAS  C:\Users\DAVIDW~1\AppData\Local\Temp\cc8ZNA3W.s 			page 35


1635:Generated_Source\PSoC6/CapSense_Filter.c ****     ptrSensor = ptrWidget->ptr2SnsRam;
1636:Generated_Source\PSoC6/CapSense_Filter.c ****     ptrSensor = &ptrSensor[sensorId];
1637:Generated_Source\PSoC6/CapSense_Filter.c **** 
1638:Generated_Source\PSoC6/CapSense_Filter.c ****     /* Find pointer to specified filter sensor object */
1639:Generated_Source\PSoC6/CapSense_Filter.c ****     ptrNoiseEnvelope = ptrWidget->ptr2NoiseEnvlp;
1640:Generated_Source\PSoC6/CapSense_Filter.c ****     ptrNoiseEnvelope = &ptrNoiseEnvelope[sensorId];
1641:Generated_Source\PSoC6/CapSense_Filter.c **** 
1642:Generated_Source\PSoC6/CapSense_Filter.c ****     SmartSense_InitializeNoiseEnvelope(ptrSensor->raw[0u], ptrWidgetRam->sigPFC, ptrNoiseEnvelope);
1643:Generated_Source\PSoC6/CapSense_Filter.c **** }
1644:Generated_Source\PSoC6/CapSense_Filter.c **** #endif /* (0u != (CapSense_CSD_AUTOTUNE & CapSense_CSD_SS_TH_EN)) */
1645:Generated_Source\PSoC6/CapSense_Filter.c **** 
1646:Generated_Source\PSoC6/CapSense_Filter.c **** 
1647:Generated_Source\PSoC6/CapSense_Filter.c **** #if (CapSense_POS_MEDIAN_FILTER_EN || CapSense_REGULAR_RC_MEDIAN_FILTER_EN || CapSense_PROX_RC_MEDI
1648:Generated_Source\PSoC6/CapSense_Filter.c **** /*******************************************************************************
1649:Generated_Source\PSoC6/CapSense_Filter.c **** * Function Name: CapSense_FtMedian
1650:Generated_Source\PSoC6/CapSense_Filter.c **** ****************************************************************************//**
1651:Generated_Source\PSoC6/CapSense_Filter.c **** *
1652:Generated_Source\PSoC6/CapSense_Filter.c **** * \brief    Return the median value from the three passed arguments.
1653:Generated_Source\PSoC6/CapSense_Filter.c **** *
1654:Generated_Source\PSoC6/CapSense_Filter.c **** * \details  Return the median value from the three passed arguments.
1655:Generated_Source\PSoC6/CapSense_Filter.c **** *
1656:Generated_Source\PSoC6/CapSense_Filter.c **** * \param    x1 The first value to be compared.
1657:Generated_Source\PSoC6/CapSense_Filter.c **** * \param    x2 The second value to be compared.
1658:Generated_Source\PSoC6/CapSense_Filter.c **** * \param    x3 The third value to be compared.
1659:Generated_Source\PSoC6/CapSense_Filter.c **** *
1660:Generated_Source\PSoC6/CapSense_Filter.c **** * \return   Returns the median value of input arguments.
1661:Generated_Source\PSoC6/CapSense_Filter.c **** *
1662:Generated_Source\PSoC6/CapSense_Filter.c **** *******************************************************************************/
1663:Generated_Source\PSoC6/CapSense_Filter.c **** uint32 CapSense_FtMedian(uint32 x1, uint32 x2, uint32 x3)
1664:Generated_Source\PSoC6/CapSense_Filter.c **** {
1665:Generated_Source\PSoC6/CapSense_Filter.c ****     uint32 tmp;
1666:Generated_Source\PSoC6/CapSense_Filter.c **** 
1667:Generated_Source\PSoC6/CapSense_Filter.c ****     if (x1 > x2)
1668:Generated_Source\PSoC6/CapSense_Filter.c ****     {
1669:Generated_Source\PSoC6/CapSense_Filter.c ****         tmp = x2;
1670:Generated_Source\PSoC6/CapSense_Filter.c ****         x2 = x1;
1671:Generated_Source\PSoC6/CapSense_Filter.c ****         x1 = tmp;
1672:Generated_Source\PSoC6/CapSense_Filter.c ****     }
1673:Generated_Source\PSoC6/CapSense_Filter.c **** 
1674:Generated_Source\PSoC6/CapSense_Filter.c ****     if (x2 > x3)
1675:Generated_Source\PSoC6/CapSense_Filter.c ****     {
1676:Generated_Source\PSoC6/CapSense_Filter.c ****         x2 = x3;
1677:Generated_Source\PSoC6/CapSense_Filter.c ****     }
1678:Generated_Source\PSoC6/CapSense_Filter.c **** 
1679:Generated_Source\PSoC6/CapSense_Filter.c ****     return ((x1 > x2) ? x1 : x2);
1680:Generated_Source\PSoC6/CapSense_Filter.c **** }
1681:Generated_Source\PSoC6/CapSense_Filter.c **** #endif /*CapSense_POS_MEDIAN_FILTER_EN || CapSense_REGULAR_RC_MEDIAN_FILTER_EN || CapSense_PROX_RC_
1682:Generated_Source\PSoC6/CapSense_Filter.c **** 
1683:Generated_Source\PSoC6/CapSense_Filter.c **** 
1684:Generated_Source\PSoC6/CapSense_Filter.c **** /*******************************************************************************
1685:Generated_Source\PSoC6/CapSense_Filter.c **** * Function Name: CapSense_FtIIR1stOrder
1686:Generated_Source\PSoC6/CapSense_Filter.c **** ****************************************************************************//**
1687:Generated_Source\PSoC6/CapSense_Filter.c **** *
1688:Generated_Source\PSoC6/CapSense_Filter.c **** * \brief    Return the filtered data by the IIR 1-st order algorithm
1689:Generated_Source\PSoC6/CapSense_Filter.c **** *
1690:Generated_Source\PSoC6/CapSense_Filter.c **** * \details  Return the filtered data by the IIR 1-st order algorithm
1691:Generated_Source\PSoC6/CapSense_Filter.c **** *
ARM GAS  C:\Users\DAVIDW~1\AppData\Local\Temp\cc8ZNA3W.s 			page 36


1692:Generated_Source\PSoC6/CapSense_Filter.c **** * \param    input      The data to be filtered.
1693:Generated_Source\PSoC6/CapSense_Filter.c **** * \param    prevOutput The previous filtered data.
1694:Generated_Source\PSoC6/CapSense_Filter.c **** * \param    n          The IIR filter coefficient (n/256).
1695:Generated_Source\PSoC6/CapSense_Filter.c **** * \param    shift      The parameter is used to shift input data to have free LSB
1696:Generated_Source\PSoC6/CapSense_Filter.c **** *                       bits for a fraction storage of the filter output calculation.
1697:Generated_Source\PSoC6/CapSense_Filter.c **** *
1698:Generated_Source\PSoC6/CapSense_Filter.c **** * \return   Returns the filtered data.
1699:Generated_Source\PSoC6/CapSense_Filter.c **** *
1700:Generated_Source\PSoC6/CapSense_Filter.c **** *******************************************************************************/
1701:Generated_Source\PSoC6/CapSense_Filter.c **** uint32 CapSense_FtIIR1stOrder(uint32 input, uint32 prevOutput, uint32 n, uint32 shift)
1702:Generated_Source\PSoC6/CapSense_Filter.c **** {
 282              		.loc 1 1702 0
 283              		.cfi_startproc
 284              		@ args = 0, pretend = 0, frame = 0
 285              		@ frame_needed = 0, uses_anonymous_args = 0
 286              		@ link register save eliminated.
 287              	.LVL30:
1703:Generated_Source\PSoC6/CapSense_Filter.c ****     uint32 filteredOutput;
1704:Generated_Source\PSoC6/CapSense_Filter.c **** 
1705:Generated_Source\PSoC6/CapSense_Filter.c ****     /*
1706:Generated_Source\PSoC6/CapSense_Filter.c ****     * n - IIR filter coefficient (n/256)
1707:Generated_Source\PSoC6/CapSense_Filter.c ****     * shift - Used to shift input data to have free LSB bits
1708:Generated_Source\PSoC6/CapSense_Filter.c ****     * for fraction storage of filter output calculation
1709:Generated_Source\PSoC6/CapSense_Filter.c ****     */
1710:Generated_Source\PSoC6/CapSense_Filter.c ****     filteredOutput = ((n * (input << shift)) + ((CapSense_IIR_COEFFICIENT_K - n) * prevOutput)) >> 
 288              		.loc 1 1710 0
 289 0000 00FA03F3 		lsl	r3, r0, r3
 290              	.LVL31:
 291 0004 C2F58070 		rsb	r0, r2, #256
 292              	.LVL32:
 293 0008 01FB00F1 		mul	r1, r1, r0
 294              	.LVL33:
 295 000c 02FB0310 		mla	r0, r2, r3, r1
 296              	.LVL34:
1711:Generated_Source\PSoC6/CapSense_Filter.c **** 
1712:Generated_Source\PSoC6/CapSense_Filter.c ****     /* Shift operation of output will be done in upper level API if needed */
1713:Generated_Source\PSoC6/CapSense_Filter.c ****     return filteredOutput;
1714:Generated_Source\PSoC6/CapSense_Filter.c **** }
 297              		.loc 1 1714 0
 298 0010 000A     		lsrs	r0, r0, #8
 299              	.LVL35:
 300 0012 7047     		bx	lr
 301              		.cfi_endproc
 302              	.LFE135:
 303              		.size	CapSense_FtIIR1stOrder, .-CapSense_FtIIR1stOrder
 304              		.section	.text.CapSense_FtUpdateBaseline,"ax",%progbits
 305              		.align	2
 306              		.global	CapSense_FtUpdateBaseline
 307              		.thumb
 308              		.thumb_func
 309              		.type	CapSense_FtUpdateBaseline, %function
 310              	CapSense_FtUpdateBaseline:
 311              	.LFB129:
 259:Generated_Source\PSoC6/CapSense_Filter.c ****     uint32 sign;
 312              		.loc 1 259 0
 313              		.cfi_startproc
 314              		@ args = 0, pretend = 0, frame = 0
ARM GAS  C:\Users\DAVIDW~1\AppData\Local\Temp\cc8ZNA3W.s 			page 37


 315              		@ frame_needed = 0, uses_anonymous_args = 0
 316              	.LVL36:
 317 0000 2DE9F041 		push	{r4, r5, r6, r7, r8, lr}
 318              		.cfi_def_cfa_offset 24
 319              		.cfi_offset 4, -24
 320              		.cfi_offset 5, -20
 321              		.cfi_offset 6, -16
 322              		.cfi_offset 7, -12
 323              		.cfi_offset 8, -8
 324              		.cfi_offset 14, -4
 325 0004 0646     		mov	r6, r0
 326 0006 0D46     		mov	r5, r1
 327 0008 1746     		mov	r7, r2
 328              	.LVL37:
 271:Generated_Source\PSoC6/CapSense_Filter.c ****     {
 329              		.loc 1 271 0
 330 000a 0123     		movs	r3, #1
 331 000c 54E0     		b	.L25
 332              	.LVL38:
 333              	.L33:
 283:Generated_Source\PSoC6/CapSense_Filter.c ****         {
 334              		.loc 1 283 0
 335 000e 35F81400 		ldrh	r0, [r5, r4, lsl #1]
 336 0012 05EB4403 		add	r3, r5, r4, lsl #1
 337 0016 5988     		ldrh	r1, [r3, #2]
 338 0018 8842     		cmp	r0, r1
 339 001a 07D3     		bcc	.L26
 285:Generated_Source\PSoC6/CapSense_Filter.c ****             sign = 1u;
 340              		.loc 1 285 0
 341 001c 431A     		subs	r3, r0, r1
 342              	.LVL39:
 287:Generated_Source\PSoC6/CapSense_Filter.c ****         }
 343              		.loc 1 287 0
 344 001e 2A19     		adds	r2, r5, r4
 345 0020 4FF0000E 		mov	lr, #0
 346 0024 82F808E0 		strb	lr, [r2, #8]
 286:Generated_Source\PSoC6/CapSense_Filter.c ****             ptrSensor->negBslnRstCnt[freqChannel] = 0u;
 347              		.loc 1 286 0
 348 0028 0122     		movs	r2, #1
 349 002a 01E0     		b	.L27
 350              	.LVL40:
 351              	.L26:
 291:Generated_Source\PSoC6/CapSense_Filter.c ****             sign = 0u;
 352              		.loc 1 291 0
 353 002c 0B1A     		subs	r3, r1, r0
 354              	.LVL41:
 292:Generated_Source\PSoC6/CapSense_Filter.c ****         }
 355              		.loc 1 292 0
 356 002e 0022     		movs	r2, #0
 357              	.LVL42:
 358              	.L27:
 296:Generated_Source\PSoC6/CapSense_Filter.c ****         {
 359              		.loc 1 296 0
 360 0030 92B9     		cbnz	r2, .L28
 296:Generated_Source\PSoC6/CapSense_Filter.c ****         {
 361              		.loc 1 296 0 is_stmt 0 discriminator 1
 362 0032 96F805E0 		ldrb	lr, [r6, #5]	@ zero_extendqisi2
ARM GAS  C:\Users\DAVIDW~1\AppData\Local\Temp\cc8ZNA3W.s 			page 38


 363 0036 7345     		cmp	r3, lr
 364 0038 0ED9     		bls	.L28
 298:Generated_Source\PSoC6/CapSense_Filter.c ****             {
 365              		.loc 1 298 0 is_stmt 1
 366 003a 2B19     		adds	r3, r5, r4
 367              	.LVL43:
 368 003c 1B7A     		ldrb	r3, [r3, #8]	@ zero_extendqisi2
 369 003e 327A     		ldrb	r2, [r6, #8]	@ zero_extendqisi2
 370              	.LVL44:
 371 0040 9342     		cmp	r3, r2
 372 0042 05D3     		bcc	.L29
 300:Generated_Source\PSoC6/CapSense_Filter.c ****             }
 373              		.loc 1 300 0
 374 0044 2246     		mov	r2, r4
 375 0046 3946     		mov	r1, r7
 376 0048 2846     		mov	r0, r5
 377 004a FFF7FEFF 		bl	CapSense_FtInitializeBaselineChannel
 378              	.LVL45:
 379 004e 32E0     		b	.L30
 380              	.L29:
 304:Generated_Source\PSoC6/CapSense_Filter.c ****             }
 381              		.loc 1 304 0
 382 0050 2A19     		adds	r2, r5, r4
 383 0052 0133     		adds	r3, r3, #1
 384 0054 1372     		strb	r3, [r2, #8]
 385 0056 2EE0     		b	.L30
 386              	.LVL46:
 387              	.L28:
 311:Generated_Source\PSoC6/CapSense_Filter.c ****                     ((difference < (uint32) ptrWidgetRam->nNoiseTh) && (sign == 0u)))
 388              		.loc 1 311 0
 389 0058 96F804E0 		ldrb	lr, [r6, #4]	@ zero_extendqisi2
 390 005c 7345     		cmp	r3, lr
 391 005e 04D9     		bls	.L31
 312:Generated_Source\PSoC6/CapSense_Filter.c ****                 {
 392              		.loc 1 312 0 discriminator 1
 393 0060 96F805E0 		ldrb	lr, [r6, #5]	@ zero_extendqisi2
 311:Generated_Source\PSoC6/CapSense_Filter.c ****                     ((difference < (uint32) ptrWidgetRam->nNoiseTh) && (sign == 0u)))
 394              		.loc 1 311 0 discriminator 1
 395 0064 7345     		cmp	r3, lr
 396 0066 26D2     		bcs	.L30
 312:Generated_Source\PSoC6/CapSense_Filter.c ****                 {
 397              		.loc 1 312 0
 398 0068 2ABB     		cbnz	r2, .L30
 399              	.L31:
 318:Generated_Source\PSoC6/CapSense_Filter.c ****                 {
 400              		.loc 1 318 0
 401 006a FBB2     		uxtb	r3, r7
 402              	.LVL47:
 403 006c 062B     		cmp	r3, #6
 404 006e 11D0     		beq	.L32
 405              	.LVL48:
 323:Generated_Source\PSoC6/CapSense_Filter.c ****                         #else
 406              		.loc 1 323 0
 407 0070 05EB0408 		add	r8, r5, r4
 408 0074 98F804E0 		ldrb	lr, [r8, #4]	@ zero_extendqisi2
 409              	.LVL49:
 334:Generated_Source\PSoC6/CapSense_Filter.c ****                                         (uint32)ptrSensor->raw[freqChannel],
ARM GAS  C:\Users\DAVIDW~1\AppData\Local\Temp\cc8ZNA3W.s 			page 39


 410              		.loc 1 334 0
 411 0078 0823     		movs	r3, #8
 412 007a 0122     		movs	r2, #1
 413              	.LVL50:
 414 007c 4EEA0121 		orr	r1, lr, r1, lsl #8
 415              	.LVL51:
 416 0080 FFF7FEFF 		bl	CapSense_FtIIR1stOrder
 417              	.LVL52:
 340:Generated_Source\PSoC6/CapSense_Filter.c ****                                     ptrSensor->bslnExt[freqChannel] = CY_LO8(history);
 418              		.loc 1 340 0
 419 0084 C0F30F22 		ubfx	r2, r0, #8, #16
 420 0088 05EB4403 		add	r3, r5, r4, lsl #1
 421 008c 5A80     		strh	r2, [r3, #2]	@ movhi
 341:Generated_Source\PSoC6/CapSense_Filter.c ****                         #else
 422              		.loc 1 341 0
 423 008e 88F80400 		strb	r0, [r8, #4]
 424 0092 10E0     		b	.L30
 425              	.LVL53:
 426              	.L32:
 352:Generated_Source\PSoC6/CapSense_Filter.c ****                         #else
 427              		.loc 1 352 0
 428 0094 05EB0408 		add	r8, r5, r4
 429 0098 98F804E0 		ldrb	lr, [r8, #4]	@ zero_extendqisi2
 430              	.LVL54:
 363:Generated_Source\PSoC6/CapSense_Filter.c ****                                         (uint32)ptrSensor->raw[freqChannel],
 431              		.loc 1 363 0
 432 009c 0823     		movs	r3, #8
 433 009e 0122     		movs	r2, #1
 434              	.LVL55:
 435 00a0 4EEA0121 		orr	r1, lr, r1, lsl #8
 436              	.LVL56:
 437 00a4 FFF7FEFF 		bl	CapSense_FtIIR1stOrder
 438              	.LVL57:
 369:Generated_Source\PSoC6/CapSense_Filter.c ****                                     ptrSensor->bslnExt[freqChannel] = CY_LO8(history);
 439              		.loc 1 369 0
 440 00a8 C0F30F22 		ubfx	r2, r0, #8, #16
 441 00ac 05EB4403 		add	r3, r5, r4, lsl #1
 442 00b0 5A80     		strh	r2, [r3, #2]	@ movhi
 370:Generated_Source\PSoC6/CapSense_Filter.c ****                         #else
 443              		.loc 1 370 0
 444 00b2 88F80400 		strb	r0, [r8, #4]
 445              	.LVL58:
 446              	.L30:
 447 00b6 2346     		mov	r3, r4
 448              	.LVL59:
 449              	.L25:
 271:Generated_Source\PSoC6/CapSense_Filter.c ****     {
 450              		.loc 1 271 0 discriminator 1
 451 00b8 5C1E     		subs	r4, r3, #1
 452              	.LVL60:
 453 00ba 002B     		cmp	r3, #0
 454 00bc A7D1     		bne	.L33
 398:Generated_Source\PSoC6/CapSense_Filter.c **** 
 455              		.loc 1 398 0
 456 00be 0020     		movs	r0, #0
 457 00c0 BDE8F081 		pop	{r4, r5, r6, r7, r8, pc}
 458              		.cfi_endproc
ARM GAS  C:\Users\DAVIDW~1\AppData\Local\Temp\cc8ZNA3W.s 			page 40


 459              	.LFE129:
 460              		.size	CapSense_FtUpdateBaseline, .-CapSense_FtUpdateBaseline
 461              		.section	.text.CapSense_UpdateSensorBaseline,"ax",%progbits
 462              		.align	2
 463              		.global	CapSense_UpdateSensorBaseline
 464              		.thumb
 465              		.thumb_func
 466              		.type	CapSense_UpdateSensorBaseline, %function
 467              	CapSense_UpdateSensorBaseline:
 468              	.LFB128:
 201:Generated_Source\PSoC6/CapSense_Filter.c ****     uint32 result = CY_RET_SUCCESS;
 469              		.loc 1 201 0
 470              		.cfi_startproc
 471              		@ args = 0, pretend = 0, frame = 0
 472              		@ frame_needed = 0, uses_anonymous_args = 0
 473              	.LVL61:
 474 0000 70B5     		push	{r4, r5, r6, lr}
 475              		.cfi_def_cfa_offset 16
 476              		.cfi_offset 4, -16
 477              		.cfi_offset 5, -12
 478              		.cfi_offset 6, -8
 479              		.cfi_offset 14, -4
 480              	.LVL62:
 206:Generated_Source\PSoC6/CapSense_Filter.c **** 
 481              		.loc 1 206 0
 482 0002 074E     		ldr	r6, .L37
 483 0004 C200     		lsls	r2, r0, #3
 484 0006 141A     		subs	r4, r2, r0
 485 0008 A300     		lsls	r3, r4, #2
 486 000a 3344     		add	r3, r3, r6
 487              	.LVL63:
 209:Generated_Source\PSoC6/CapSense_Filter.c ****     ptrSensor = &ptrSensor[sensorId];
 488              		.loc 1 209 0
 489 000c 9C68     		ldr	r4, [r3, #8]
 490              	.LVL64:
 210:Generated_Source\PSoC6/CapSense_Filter.c ****     result = CapSense_FtUpdateBaseline(ptrWidgetRam, ptrSensor, (uint32)ptrWidget->wdgtType);
 491              		.loc 1 210 0
 492 000e 01EB8101 		add	r1, r1, r1, lsl #2
 493              	.LVL65:
 494 0012 4D00     		lsls	r5, r1, #1
 495              	.LVL66:
 211:Generated_Source\PSoC6/CapSense_Filter.c **** 
 496              		.loc 1 211 0
 497 0014 9A7E     		ldrb	r2, [r3, #26]	@ zero_extendqisi2
 498 0016 6119     		adds	r1, r4, r5
 499              	.LVL67:
 500 0018 5868     		ldr	r0, [r3, #4]
 501              	.LVL68:
 502 001a FFF7FEFF 		bl	CapSense_FtUpdateBaseline
 503              	.LVL69:
 222:Generated_Source\PSoC6/CapSense_Filter.c **** 
 504              		.loc 1 222 0
 505 001e 70BD     		pop	{r4, r5, r6, pc}
 506              	.LVL70:
 507              	.L38:
 508              		.align	2
 509              	.L37:
ARM GAS  C:\Users\DAVIDW~1\AppData\Local\Temp\cc8ZNA3W.s 			page 41


 510 0020 00000000 		.word	CapSense_dsFlash
 511              		.cfi_endproc
 512              	.LFE128:
 513              		.size	CapSense_UpdateSensorBaseline, .-CapSense_UpdateSensorBaseline
 514              		.section	.text.CapSense_UpdateWidgetBaseline,"ax",%progbits
 515              		.align	2
 516              		.global	CapSense_UpdateWidgetBaseline
 517              		.thumb
 518              		.thumb_func
 519              		.type	CapSense_UpdateWidgetBaseline, %function
 520              	CapSense_UpdateWidgetBaseline:
 521              	.LFB127:
 144:Generated_Source\PSoC6/CapSense_Filter.c ****     uint32 sensorId;
 522              		.loc 1 144 0
 523              		.cfi_startproc
 524              		@ args = 0, pretend = 0, frame = 0
 525              		@ frame_needed = 0, uses_anonymous_args = 0
 526              	.LVL71:
 527 0000 70B5     		push	{r4, r5, r6, lr}
 528              		.cfi_def_cfa_offset 16
 529              		.cfi_offset 4, -16
 530              		.cfi_offset 5, -12
 531              		.cfi_offset 6, -8
 532              		.cfi_offset 14, -4
 533 0002 0646     		mov	r6, r0
 534              	.LVL72:
 152:Generated_Source\PSoC6/CapSense_Filter.c **** 
 535              		.loc 1 152 0
 536 0004 C0EBC002 		rsb	r2, r0, r0, lsl #3
 537 0008 9300     		lsls	r3, r2, #2
 538 000a 084A     		ldr	r2, .L43
 539 000c 1344     		add	r3, r3, r2
 540 000e 1B8B     		ldrh	r3, [r3, #24]
 541              	.LVL73:
 149:Generated_Source\PSoC6/CapSense_Filter.c **** 
 542              		.loc 1 149 0
 543 0010 0025     		movs	r5, #0
 154:Generated_Source\PSoC6/CapSense_Filter.c ****     {
 544              		.loc 1 154 0
 545 0012 05E0     		b	.L40
 546              	.LVL74:
 547              	.L41:
 156:Generated_Source\PSoC6/CapSense_Filter.c ****     }
 548              		.loc 1 156 0
 549 0014 2146     		mov	r1, r4
 550 0016 3046     		mov	r0, r6
 551 0018 FFF7FEFF 		bl	CapSense_UpdateSensorBaseline
 552              	.LVL75:
 553 001c 0543     		orrs	r5, r5, r0
 554              	.LVL76:
 154:Generated_Source\PSoC6/CapSense_Filter.c ****     {
 555              		.loc 1 154 0
 556 001e 2346     		mov	r3, r4
 557              	.LVL77:
 558              	.L40:
 154:Generated_Source\PSoC6/CapSense_Filter.c ****     {
 559              		.loc 1 154 0 is_stmt 0 discriminator 1
ARM GAS  C:\Users\DAVIDW~1\AppData\Local\Temp\cc8ZNA3W.s 			page 42


 560 0020 5C1E     		subs	r4, r3, #1
 561              	.LVL78:
 562 0022 002B     		cmp	r3, #0
 563 0024 F6D1     		bne	.L41
 160:Generated_Source\PSoC6/CapSense_Filter.c **** 
 564              		.loc 1 160 0 is_stmt 1
 565 0026 2846     		mov	r0, r5
 566 0028 70BD     		pop	{r4, r5, r6, pc}
 567              	.LVL79:
 568              	.L44:
 569 002a 00BF     		.align	2
 570              	.L43:
 571 002c 00000000 		.word	CapSense_dsFlash
 572              		.cfi_endproc
 573              	.LFE127:
 574              		.size	CapSense_UpdateWidgetBaseline, .-CapSense_UpdateWidgetBaseline
 575              		.section	.text.CapSense_UpdateAllBaselines,"ax",%progbits
 576              		.align	2
 577              		.global	CapSense_UpdateAllBaselines
 578              		.thumb
 579              		.thumb_func
 580              		.type	CapSense_UpdateAllBaselines, %function
 581              	CapSense_UpdateAllBaselines:
 582              	.LFB126:
  99:Generated_Source\PSoC6/CapSense_Filter.c ****     uint32 widgetId;
 583              		.loc 1 99 0
 584              		.cfi_startproc
 585              		@ args = 0, pretend = 0, frame = 0
 586              		@ frame_needed = 0, uses_anonymous_args = 0
 587 0000 38B5     		push	{r3, r4, r5, lr}
 588              		.cfi_def_cfa_offset 16
 589              		.cfi_offset 3, -16
 590              		.cfi_offset 4, -12
 591              		.cfi_offset 5, -8
 592              		.cfi_offset 14, -4
 593              	.LVL80:
 101:Generated_Source\PSoC6/CapSense_Filter.c **** 
 594              		.loc 1 101 0
 595 0002 0025     		movs	r5, #0
 103:Generated_Source\PSoC6/CapSense_Filter.c ****     {
 596              		.loc 1 103 0
 597 0004 0323     		movs	r3, #3
 598 0006 04E0     		b	.L46
 599              	.LVL81:
 600              	.L47:
 105:Generated_Source\PSoC6/CapSense_Filter.c ****     }
 601              		.loc 1 105 0
 602 0008 2046     		mov	r0, r4
 603 000a FFF7FEFF 		bl	CapSense_UpdateWidgetBaseline
 604              	.LVL82:
 605 000e 0543     		orrs	r5, r5, r0
 606              	.LVL83:
 103:Generated_Source\PSoC6/CapSense_Filter.c ****     {
 607              		.loc 1 103 0
 608 0010 2346     		mov	r3, r4
 609              	.LVL84:
 610              	.L46:
ARM GAS  C:\Users\DAVIDW~1\AppData\Local\Temp\cc8ZNA3W.s 			page 43


 103:Generated_Source\PSoC6/CapSense_Filter.c ****     {
 611              		.loc 1 103 0 is_stmt 0 discriminator 1
 612 0012 5C1E     		subs	r4, r3, #1
 613              	.LVL85:
 614 0014 002B     		cmp	r3, #0
 615 0016 F7D1     		bne	.L47
 109:Generated_Source\PSoC6/CapSense_Filter.c **** 
 616              		.loc 1 109 0 is_stmt 1
 617 0018 2846     		mov	r0, r5
 618 001a 38BD     		pop	{r3, r4, r5, pc}
 619              		.cfi_endproc
 620              	.LFE126:
 621              		.size	CapSense_UpdateAllBaselines, .-CapSense_UpdateAllBaselines
 622              		.text
 623              	.Letext0:
 624              		.file 2 "e:\\program files\\cypress\\psoc creator\\4.2\\psoc creator\\import\\gnu\\arm\\5.4.1\\arm
 625              		.file 3 "e:\\program files\\cypress\\psoc creator\\4.2\\psoc creator\\import\\gnu\\arm\\5.4.1\\arm
 626              		.file 4 "Generated_Source\\PSoC6\\pdl\\drivers/peripheral/syslib/cy_syslib.h"
 627              		.file 5 "Generated_Source\\PSoC6\\CapSense_Configuration.h"
 628              		.file 6 "Generated_Source\\PSoC6\\CapSense_Structure.h"
 629              		.file 7 "Generated_Source\\PSoC6\\pdl\\cmsis/include/core_cm4.h"
 630              		.section	.debug_info,"",%progbits
 631              	.Ldebug_info0:
 632 0000 2D080000 		.4byte	0x82d
 633 0004 0400     		.2byte	0x4
 634 0006 00000000 		.4byte	.Ldebug_abbrev0
 635 000a 04       		.byte	0x4
 636 000b 01       		.uleb128 0x1
 637 000c F0000000 		.4byte	.LASF95
 638 0010 0C       		.byte	0xc
 639 0011 D6020000 		.4byte	.LASF96
 640 0015 81030000 		.4byte	.LASF97
 641 0019 00000000 		.4byte	.Ldebug_ranges0+0
 642 001d 00000000 		.4byte	0
 643 0021 00000000 		.4byte	.Ldebug_line0
 644 0025 02       		.uleb128 0x2
 645 0026 04       		.byte	0x4
 646 0027 05       		.byte	0x5
 647 0028 696E7400 		.ascii	"int\000"
 648 002c 03       		.uleb128 0x3
 649 002d 04       		.byte	0x4
 650 002e 07       		.byte	0x7
 651 002f 36040000 		.4byte	.LASF0
 652 0033 03       		.uleb128 0x3
 653 0034 08       		.byte	0x8
 654 0035 05       		.byte	0x5
 655 0036 AB020000 		.4byte	.LASF1
 656 003a 03       		.uleb128 0x3
 657 003b 08       		.byte	0x8
 658 003c 04       		.byte	0x4
 659 003d C7030000 		.4byte	.LASF2
 660 0041 03       		.uleb128 0x3
 661 0042 01       		.byte	0x1
 662 0043 06       		.byte	0x6
 663 0044 F5030000 		.4byte	.LASF3
 664 0048 04       		.uleb128 0x4
 665 0049 2E030000 		.4byte	.LASF6
ARM GAS  C:\Users\DAVIDW~1\AppData\Local\Temp\cc8ZNA3W.s 			page 44


 666 004d 02       		.byte	0x2
 667 004e 1D       		.byte	0x1d
 668 004f 53000000 		.4byte	0x53
 669 0053 03       		.uleb128 0x3
 670 0054 01       		.byte	0x1
 671 0055 08       		.byte	0x8
 672 0056 D3030000 		.4byte	.LASF4
 673 005a 03       		.uleb128 0x3
 674 005b 02       		.byte	0x2
 675 005c 05       		.byte	0x5
 676 005d 95000000 		.4byte	.LASF5
 677 0061 04       		.uleb128 0x4
 678 0062 D2010000 		.4byte	.LASF7
 679 0066 02       		.byte	0x2
 680 0067 2B       		.byte	0x2b
 681 0068 6C000000 		.4byte	0x6c
 682 006c 03       		.uleb128 0x3
 683 006d 02       		.byte	0x2
 684 006e 07       		.byte	0x7
 685 006f AA040000 		.4byte	.LASF8
 686 0073 04       		.uleb128 0x4
 687 0074 21050000 		.4byte	.LASF9
 688 0078 02       		.byte	0x2
 689 0079 3F       		.byte	0x3f
 690 007a 7E000000 		.4byte	0x7e
 691 007e 03       		.uleb128 0x3
 692 007f 04       		.byte	0x4
 693 0080 05       		.byte	0x5
 694 0081 BE020000 		.4byte	.LASF10
 695 0085 04       		.uleb128 0x4
 696 0086 B2010000 		.4byte	.LASF11
 697 008a 02       		.byte	0x2
 698 008b 41       		.byte	0x41
 699 008c 90000000 		.4byte	0x90
 700 0090 03       		.uleb128 0x3
 701 0091 04       		.byte	0x4
 702 0092 07       		.byte	0x7
 703 0093 A1050000 		.4byte	.LASF12
 704 0097 03       		.uleb128 0x3
 705 0098 08       		.byte	0x8
 706 0099 07       		.byte	0x7
 707 009a 09040000 		.4byte	.LASF13
 708 009e 04       		.uleb128 0x4
 709 009f 2F020000 		.4byte	.LASF14
 710 00a3 03       		.byte	0x3
 711 00a4 18       		.byte	0x18
 712 00a5 48000000 		.4byte	0x48
 713 00a9 04       		.uleb128 0x4
 714 00aa 43040000 		.4byte	.LASF15
 715 00ae 03       		.byte	0x3
 716 00af 24       		.byte	0x24
 717 00b0 61000000 		.4byte	0x61
 718 00b4 04       		.uleb128 0x4
 719 00b5 01040000 		.4byte	.LASF16
 720 00b9 03       		.byte	0x3
 721 00ba 2C       		.byte	0x2c
 722 00bb 73000000 		.4byte	0x73
ARM GAS  C:\Users\DAVIDW~1\AppData\Local\Temp\cc8ZNA3W.s 			page 45


 723 00bf 04       		.uleb128 0x4
 724 00c0 20040000 		.4byte	.LASF17
 725 00c4 03       		.byte	0x3
 726 00c5 30       		.byte	0x30
 727 00c6 85000000 		.4byte	0x85
 728 00ca 03       		.uleb128 0x3
 729 00cb 04       		.byte	0x4
 730 00cc 07       		.byte	0x7
 731 00cd FF020000 		.4byte	.LASF18
 732 00d1 03       		.uleb128 0x3
 733 00d2 01       		.byte	0x1
 734 00d3 08       		.byte	0x8
 735 00d4 B9020000 		.4byte	.LASF19
 736 00d8 03       		.uleb128 0x3
 737 00d9 04       		.byte	0x4
 738 00da 04       		.byte	0x4
 739 00db A5020000 		.4byte	.LASF20
 740 00df 03       		.uleb128 0x3
 741 00e0 08       		.byte	0x8
 742 00e1 04       		.byte	0x4
 743 00e2 B8050000 		.4byte	.LASF21
 744 00e6 05       		.uleb128 0x5
 745 00e7 EB030000 		.4byte	.LASF22
 746 00eb 04       		.byte	0x4
 747 00ec 8203     		.2byte	0x382
 748 00ee BF000000 		.4byte	0xbf
 749 00f2 05       		.uleb128 0x5
 750 00f3 37020000 		.4byte	.LASF23
 751 00f7 04       		.byte	0x4
 752 00f8 8503     		.2byte	0x385
 753 00fa 9E000000 		.4byte	0x9e
 754 00fe 05       		.uleb128 0x5
 755 00ff FA010000 		.4byte	.LASF24
 756 0103 04       		.byte	0x4
 757 0104 8603     		.2byte	0x386
 758 0106 A9000000 		.4byte	0xa9
 759 010a 05       		.uleb128 0x5
 760 010b 9A050000 		.4byte	.LASF25
 761 010f 04       		.byte	0x4
 762 0110 8703     		.2byte	0x387
 763 0112 BF000000 		.4byte	0xbf
 764 0116 04       		.uleb128 0x4
 765 0117 08030000 		.4byte	.LASF26
 766 011b 05       		.byte	0x5
 767 011c EA       		.byte	0xea
 768 011d FE000000 		.4byte	0xfe
 769 0121 04       		.uleb128 0x4
 770 0122 16000000 		.4byte	.LASF27
 771 0126 05       		.byte	0x5
 772 0127 EE       		.byte	0xee
 773 0128 F2000000 		.4byte	0xf2
 774 012c 06       		.uleb128 0x6
 775 012d 01       		.byte	0x1
 776 012e 53000000 		.4byte	0x53
 777 0132 06       		.byte	0x6
 778 0133 61       		.byte	0x61
 779 0134 5D010000 		.4byte	0x15d
ARM GAS  C:\Users\DAVIDW~1\AppData\Local\Temp\cc8ZNA3W.s 			page 46


 780 0138 07       		.uleb128 0x7
 781 0139 DD010000 		.4byte	.LASF28
 782 013d 01       		.byte	0x1
 783 013e 07       		.uleb128 0x7
 784 013f 8E040000 		.4byte	.LASF29
 785 0143 02       		.byte	0x2
 786 0144 07       		.uleb128 0x7
 787 0145 75050000 		.4byte	.LASF30
 788 0149 03       		.byte	0x3
 789 014a 07       		.uleb128 0x7
 790 014b E8050000 		.4byte	.LASF31
 791 014f 04       		.byte	0x4
 792 0150 07       		.uleb128 0x7
 793 0151 A5000000 		.4byte	.LASF32
 794 0155 05       		.byte	0x5
 795 0156 07       		.uleb128 0x7
 796 0157 8D020000 		.4byte	.LASF33
 797 015b 06       		.byte	0x6
 798 015c 00       		.byte	0
 799 015d 04       		.uleb128 0x4
 800 015e C7050000 		.4byte	.LASF34
 801 0162 06       		.byte	0x6
 802 0163 68       		.byte	0x68
 803 0164 2C010000 		.4byte	0x12c
 804 0168 08       		.uleb128 0x8
 805 0169 0E       		.byte	0xe
 806 016a 06       		.byte	0x6
 807 016b 8C       		.byte	0x8c
 808 016c E9010000 		.4byte	0x1e9
 809 0170 09       		.uleb128 0x9
 810 0171 16050000 		.4byte	.LASF35
 811 0175 06       		.byte	0x6
 812 0176 92       		.byte	0x92
 813 0177 FE000000 		.4byte	0xfe
 814 017b 00       		.byte	0
 815 017c 09       		.uleb128 0x9
 816 017d 43030000 		.4byte	.LASF36
 817 0181 06       		.byte	0x6
 818 0182 97       		.byte	0x97
 819 0183 16010000 		.4byte	0x116
 820 0187 02       		.byte	0x2
 821 0188 09       		.uleb128 0x9
 822 0189 F2010000 		.4byte	.LASF37
 823 018d 06       		.byte	0x6
 824 018e 9C       		.byte	0x9c
 825 018f F2000000 		.4byte	0xf2
 826 0193 04       		.byte	0x4
 827 0194 09       		.uleb128 0x9
 828 0195 E0000000 		.4byte	.LASF38
 829 0199 06       		.byte	0x6
 830 019a A1       		.byte	0xa1
 831 019b F2000000 		.4byte	0xf2
 832 019f 05       		.byte	0x5
 833 01a0 09       		.uleb128 0x9
 834 01a1 76030000 		.4byte	.LASF39
 835 01a5 06       		.byte	0x6
 836 01a6 A6       		.byte	0xa6
ARM GAS  C:\Users\DAVIDW~1\AppData\Local\Temp\cc8ZNA3W.s 			page 47


 837 01a7 F2000000 		.4byte	0xf2
 838 01ab 06       		.byte	0x6
 839 01ac 09       		.uleb128 0x9
 840 01ad 38030000 		.4byte	.LASF40
 841 01b1 06       		.byte	0x6
 842 01b2 AB       		.byte	0xab
 843 01b3 F2000000 		.4byte	0xf2
 844 01b7 07       		.byte	0x7
 845 01b8 09       		.uleb128 0x9
 846 01b9 51000000 		.4byte	.LASF41
 847 01bd 06       		.byte	0x6
 848 01be B2       		.byte	0xb2
 849 01bf 21010000 		.4byte	0x121
 850 01c3 08       		.byte	0x8
 851 01c4 09       		.uleb128 0x9
 852 01c5 8D000000 		.4byte	.LASF42
 853 01c9 06       		.byte	0x6
 854 01ca BA       		.byte	0xba
 855 01cb E9010000 		.4byte	0x1e9
 856 01cf 09       		.byte	0x9
 857 01d0 09       		.uleb128 0x9
 858 01d1 4A020000 		.4byte	.LASF43
 859 01d5 06       		.byte	0x6
 860 01d6 C3       		.byte	0xc3
 861 01d7 FE000000 		.4byte	0xfe
 862 01db 0A       		.byte	0xa
 863 01dc 09       		.uleb128 0x9
 864 01dd C5010000 		.4byte	.LASF44
 865 01e1 06       		.byte	0x6
 866 01e2 C8       		.byte	0xc8
 867 01e3 F2000000 		.4byte	0xf2
 868 01e7 0C       		.byte	0xc
 869 01e8 00       		.byte	0
 870 01e9 0A       		.uleb128 0xa
 871 01ea F2000000 		.4byte	0xf2
 872 01ee F9010000 		.4byte	0x1f9
 873 01f2 0B       		.uleb128 0xb
 874 01f3 CA000000 		.4byte	0xca
 875 01f7 00       		.byte	0
 876 01f8 00       		.byte	0
 877 01f9 04       		.uleb128 0x4
 878 01fa 5C060000 		.4byte	.LASF45
 879 01fe 06       		.byte	0x6
 880 01ff C9       		.byte	0xc9
 881 0200 68010000 		.4byte	0x168
 882 0204 0C       		.uleb128 0xc
 883 0205 0A       		.byte	0xa
 884 0206 06       		.byte	0x6
 885 0207 6E01     		.2byte	0x16e
 886 0209 5C020000 		.4byte	0x25c
 887 020d 0D       		.uleb128 0xd
 888 020e 72617700 		.ascii	"raw\000"
 889 0212 06       		.byte	0x6
 890 0213 7301     		.2byte	0x173
 891 0215 5C020000 		.4byte	0x25c
 892 0219 00       		.byte	0
 893 021a 0E       		.uleb128 0xe
ARM GAS  C:\Users\DAVIDW~1\AppData\Local\Temp\cc8ZNA3W.s 			page 48


 894 021b 38000000 		.4byte	.LASF46
 895 021f 06       		.byte	0x6
 896 0220 7801     		.2byte	0x178
 897 0222 5C020000 		.4byte	0x25c
 898 0226 02       		.byte	0x2
 899 0227 0E       		.uleb128 0xe
 900 0228 BF050000 		.4byte	.LASF47
 901 022c 06       		.byte	0x6
 902 022d 7E01     		.2byte	0x17e
 903 022f E9010000 		.4byte	0x1e9
 904 0233 04       		.byte	0x4
 905 0234 0E       		.uleb128 0xe
 906 0235 5C000000 		.4byte	.LASF48
 907 0239 06       		.byte	0x6
 908 023a 8301     		.2byte	0x183
 909 023c 16010000 		.4byte	0x116
 910 0240 06       		.byte	0x6
 911 0241 0E       		.uleb128 0xe
 912 0242 20030000 		.4byte	.LASF49
 913 0246 06       		.byte	0x6
 914 0247 8801     		.2byte	0x188
 915 0249 6C020000 		.4byte	0x26c
 916 024d 08       		.byte	0x8
 917 024e 0E       		.uleb128 0xe
 918 024f EF040000 		.4byte	.LASF50
 919 0253 06       		.byte	0x6
 920 0254 8E01     		.2byte	0x18e
 921 0256 E9010000 		.4byte	0x1e9
 922 025a 09       		.byte	0x9
 923 025b 00       		.byte	0
 924 025c 0A       		.uleb128 0xa
 925 025d FE000000 		.4byte	0xfe
 926 0261 6C020000 		.4byte	0x26c
 927 0265 0B       		.uleb128 0xb
 928 0266 CA000000 		.4byte	0xca
 929 026a 00       		.byte	0
 930 026b 00       		.byte	0
 931 026c 0A       		.uleb128 0xa
 932 026d 21010000 		.4byte	0x121
 933 0271 7C020000 		.4byte	0x27c
 934 0275 0B       		.uleb128 0xb
 935 0276 CA000000 		.4byte	0xca
 936 027a 00       		.byte	0
 937 027b 00       		.byte	0
 938 027c 05       		.uleb128 0x5
 939 027d 58040000 		.4byte	.LASF51
 940 0281 06       		.byte	0x6
 941 0282 8F01     		.2byte	0x18f
 942 0284 04020000 		.4byte	0x204
 943 0288 0C       		.uleb128 0xc
 944 0289 1C       		.byte	0x1c
 945 028a 06       		.byte	0x6
 946 028b 5202     		.2byte	0x252
 947 028d 07030000 		.4byte	0x307
 948 0291 0E       		.uleb128 0xe
 949 0292 85060000 		.4byte	.LASF52
 950 0296 06       		.byte	0x6
ARM GAS  C:\Users\DAVIDW~1\AppData\Local\Temp\cc8ZNA3W.s 			page 49


 951 0297 5B02     		.2byte	0x25b
 952 0299 07030000 		.4byte	0x307
 953 029d 00       		.byte	0
 954 029e 0E       		.uleb128 0xe
 955 029f 5B050000 		.4byte	.LASF53
 956 02a3 06       		.byte	0x6
 957 02a4 6202     		.2byte	0x262
 958 02a6 0E030000 		.4byte	0x30e
 959 02aa 04       		.byte	0x4
 960 02ab 0E       		.uleb128 0xe
 961 02ac 04060000 		.4byte	.LASF54
 962 02b0 06       		.byte	0x6
 963 02b1 6802     		.2byte	0x268
 964 02b3 10030000 		.4byte	0x310
 965 02b7 08       		.byte	0x8
 966 02b8 0E       		.uleb128 0xe
 967 02b9 31060000 		.4byte	.LASF55
 968 02bd 06       		.byte	0x6
 969 02be 6D02     		.2byte	0x26d
 970 02c0 0E030000 		.4byte	0x30e
 971 02c4 0C       		.byte	0xc
 972 02c5 0E       		.uleb128 0xe
 973 02c6 1F020000 		.4byte	.LASF56
 974 02ca 06       		.byte	0x6
 975 02cb 7402     		.2byte	0x274
 976 02cd 16030000 		.4byte	0x316
 977 02d1 10       		.byte	0x10
 978 02d2 0E       		.uleb128 0xe
 979 02d3 29040000 		.4byte	.LASF57
 980 02d7 06       		.byte	0x6
 981 02d8 7902     		.2byte	0x279
 982 02da 0A010000 		.4byte	0x10a
 983 02de 14       		.byte	0x14
 984 02df 0E       		.uleb128 0xe
 985 02e0 61000000 		.4byte	.LASF58
 986 02e4 06       		.byte	0x6
 987 02e5 8002     		.2byte	0x280
 988 02e7 FE000000 		.4byte	0xfe
 989 02eb 18       		.byte	0x18
 990 02ec 0E       		.uleb128 0xe
 991 02ed CD020000 		.4byte	.LASF59
 992 02f1 06       		.byte	0x6
 993 02f2 8B02     		.2byte	0x28b
 994 02f4 F2000000 		.4byte	0xf2
 995 02f8 1A       		.byte	0x1a
 996 02f9 0E       		.uleb128 0xe
 997 02fa 4C030000 		.4byte	.LASF60
 998 02fe 06       		.byte	0x6
 999 02ff 9302     		.2byte	0x293
 1000 0301 F2000000 		.4byte	0xf2
 1001 0305 1B       		.byte	0x1b
 1002 0306 00       		.byte	0
 1003 0307 0F       		.uleb128 0xf
 1004 0308 04       		.byte	0x4
 1005 0309 0D030000 		.4byte	0x30d
 1006 030d 10       		.uleb128 0x10
 1007 030e 11       		.uleb128 0x11
ARM GAS  C:\Users\DAVIDW~1\AppData\Local\Temp\cc8ZNA3W.s 			page 50


 1008 030f 04       		.byte	0x4
 1009 0310 0F       		.uleb128 0xf
 1010 0311 04       		.byte	0x4
 1011 0312 7C020000 		.4byte	0x27c
 1012 0316 0F       		.uleb128 0xf
 1013 0317 04       		.byte	0x4
 1014 0318 F2000000 		.4byte	0xf2
 1015 031c 05       		.uleb128 0x5
 1016 031d BC000000 		.4byte	.LASF61
 1017 0321 06       		.byte	0x6
 1018 0322 9402     		.2byte	0x294
 1019 0324 88020000 		.4byte	0x288
 1020 0328 0C       		.uleb128 0xc
 1021 0329 54       		.byte	0x54
 1022 032a 06       		.byte	0x6
 1023 032b 9A02     		.2byte	0x29a
 1024 032d 3F030000 		.4byte	0x33f
 1025 0331 0E       		.uleb128 0xe
 1026 0332 41060000 		.4byte	.LASF62
 1027 0336 06       		.byte	0x6
 1028 0337 9F02     		.2byte	0x29f
 1029 0339 3F030000 		.4byte	0x33f
 1030 033d 00       		.byte	0
 1031 033e 00       		.byte	0
 1032 033f 0A       		.uleb128 0xa
 1033 0340 1C030000 		.4byte	0x31c
 1034 0344 4F030000 		.4byte	0x34f
 1035 0348 0B       		.uleb128 0xb
 1036 0349 CA000000 		.4byte	0xca
 1037 034d 02       		.byte	0x2
 1038 034e 00       		.byte	0
 1039 034f 05       		.uleb128 0x5
 1040 0350 00000000 		.4byte	.LASF63
 1041 0354 06       		.byte	0x6
 1042 0355 A002     		.2byte	0x2a0
 1043 0357 28030000 		.4byte	0x328
 1044 035b 12       		.uleb128 0x12
 1045 035c D9040000 		.4byte	.LASF98
 1046 0360 01       		.byte	0x1
 1047 0361 3F       		.byte	0x3f
 1048 0362 00000000 		.4byte	.LFB125
 1049 0366 02000000 		.4byte	.LFE125-.LFB125
 1050 036a 01       		.uleb128 0x1
 1051 036b 9C       		.byte	0x9c
 1052 036c 13       		.uleb128 0x13
 1053 036d 51020000 		.4byte	.LASF67
 1054 0371 01       		.byte	0x1
 1055 0372 2A02     		.2byte	0x22a
 1056 0374 00000000 		.4byte	.LFB134
 1057 0378 26000000 		.4byte	.LFE134-.LFB134
 1058 037c 01       		.uleb128 0x1
 1059 037d 9C       		.byte	0x9c
 1060 037e B1030000 		.4byte	0x3b1
 1061 0382 14       		.uleb128 0x14
 1062 0383 92060000 		.4byte	.LASF64
 1063 0387 01       		.byte	0x1
 1064 0388 2A02     		.2byte	0x22a
ARM GAS  C:\Users\DAVIDW~1\AppData\Local\Temp\cc8ZNA3W.s 			page 51


 1065 038a 10030000 		.4byte	0x310
 1066 038e 01       		.uleb128 0x1
 1067 038f 50       		.byte	0x50
 1068 0390 15       		.uleb128 0x15
 1069 0391 E9000000 		.4byte	.LASF65
 1070 0395 01       		.byte	0x1
 1071 0396 2A02     		.2byte	0x22a
 1072 0398 0A010000 		.4byte	0x10a
 1073 039c 00000000 		.4byte	.LLST0
 1074 03a0 15       		.uleb128 0x15
 1075 03a1 2B050000 		.4byte	.LASF66
 1076 03a5 01       		.byte	0x1
 1077 03a6 2A02     		.2byte	0x22a
 1078 03a8 0A010000 		.4byte	0x10a
 1079 03ac 21000000 		.4byte	.LLST1
 1080 03b0 00       		.byte	0
 1081 03b1 13       		.uleb128 0x13
 1082 03b2 F8040000 		.4byte	.LASF68
 1083 03b6 01       		.byte	0x1
 1084 03b7 0F02     		.2byte	0x20f
 1085 03b9 00000000 		.4byte	.LFB133
 1086 03bd 1E000000 		.4byte	.LFE133-.LFB133
 1087 03c1 01       		.uleb128 0x1
 1088 03c2 9C       		.byte	0x9c
 1089 03c3 14040000 		.4byte	0x414
 1090 03c7 15       		.uleb128 0x15
 1091 03c8 92060000 		.4byte	.LASF64
 1092 03cc 01       		.byte	0x1
 1093 03cd 0F02     		.2byte	0x20f
 1094 03cf 10030000 		.4byte	0x310
 1095 03d3 42000000 		.4byte	.LLST2
 1096 03d7 15       		.uleb128 0x15
 1097 03d8 E9000000 		.4byte	.LASF65
 1098 03dc 01       		.byte	0x1
 1099 03dd 0F02     		.2byte	0x20f
 1100 03df 0A010000 		.4byte	0x10a
 1101 03e3 60000000 		.4byte	.LLST3
 1102 03e7 16       		.uleb128 0x16
 1103 03e8 4C040000 		.4byte	.LASF72
 1104 03ec 01       		.byte	0x1
 1105 03ed 1102     		.2byte	0x211
 1106 03ef 0A010000 		.4byte	0x10a
 1107 03f3 7E000000 		.4byte	.LLST4
 1108 03f7 17       		.uleb128 0x17
 1109 03f8 14000000 		.4byte	.LVL6
 1110 03fc 6C030000 		.4byte	0x36c
 1111 0400 18       		.uleb128 0x18
 1112 0401 01       		.uleb128 0x1
 1113 0402 50       		.byte	0x50
 1114 0403 02       		.uleb128 0x2
 1115 0404 76       		.byte	0x76
 1116 0405 00       		.sleb128 0
 1117 0406 18       		.uleb128 0x18
 1118 0407 01       		.uleb128 0x1
 1119 0408 51       		.byte	0x51
 1120 0409 02       		.uleb128 0x2
 1121 040a 75       		.byte	0x75
ARM GAS  C:\Users\DAVIDW~1\AppData\Local\Temp\cc8ZNA3W.s 			page 52


 1122 040b 00       		.sleb128 0
 1123 040c 18       		.uleb128 0x18
 1124 040d 01       		.uleb128 0x1
 1125 040e 52       		.byte	0x52
 1126 040f 02       		.uleb128 0x2
 1127 0410 74       		.byte	0x74
 1128 0411 00       		.sleb128 0
 1129 0412 00       		.byte	0
 1130 0413 00       		.byte	0
 1131 0414 13       		.uleb128 0x13
 1132 0415 54030000 		.4byte	.LASF69
 1133 0419 01       		.byte	0x1
 1134 041a F301     		.2byte	0x1f3
 1135 041c 00000000 		.4byte	.LFB132
 1136 0420 28000000 		.4byte	.LFE132-.LFB132
 1137 0424 01       		.uleb128 0x1
 1138 0425 9C       		.byte	0x9c
 1139 0426 93040000 		.4byte	0x493
 1140 042a 15       		.uleb128 0x15
 1141 042b 91050000 		.4byte	.LASF70
 1142 042f 01       		.byte	0x1
 1143 0430 F301     		.2byte	0x1f3
 1144 0432 0A010000 		.4byte	0x10a
 1145 0436 B3000000 		.4byte	.LLST5
 1146 043a 15       		.uleb128 0x15
 1147 043b 3D000000 		.4byte	.LASF71
 1148 043f 01       		.byte	0x1
 1149 0440 F301     		.2byte	0x1f3
 1150 0442 0A010000 		.4byte	0x10a
 1151 0446 D4000000 		.4byte	.LLST6
 1152 044a 16       		.uleb128 0x16
 1153 044b 92060000 		.4byte	.LASF64
 1154 044f 01       		.byte	0x1
 1155 0450 F501     		.2byte	0x1f5
 1156 0452 10030000 		.4byte	0x310
 1157 0456 F5000000 		.4byte	.LLST7
 1158 045a 19       		.uleb128 0x19
 1159 045b E1030000 		.4byte	.LASF75
 1160 045f 01       		.byte	0x1
 1161 0460 F601     		.2byte	0x1f6
 1162 0462 93040000 		.4byte	0x493
 1163 0466 17       		.uleb128 0x17
 1164 0467 20000000 		.4byte	.LVL15
 1165 046b B1030000 		.4byte	0x3b1
 1166 046f 18       		.uleb128 0x18
 1167 0470 01       		.uleb128 0x1
 1168 0471 50       		.byte	0x50
 1169 0472 05       		.uleb128 0x5
 1170 0473 76       		.byte	0x76
 1171 0474 00       		.sleb128 0
 1172 0475 74       		.byte	0x74
 1173 0476 00       		.sleb128 0
 1174 0477 22       		.byte	0x22
 1175 0478 18       		.uleb128 0x18
 1176 0479 01       		.uleb128 0x1
 1177 047a 51       		.byte	0x51
 1178 047b 15       		.uleb128 0x15
ARM GAS  C:\Users\DAVIDW~1\AppData\Local\Temp\cc8ZNA3W.s 			page 53


 1179 047c F3       		.byte	0xf3
 1180 047d 01       		.uleb128 0x1
 1181 047e 50       		.byte	0x50
 1182 047f 33       		.byte	0x33
 1183 0480 24       		.byte	0x24
 1184 0481 F3       		.byte	0xf3
 1185 0482 01       		.uleb128 0x1
 1186 0483 50       		.byte	0x50
 1187 0484 1C       		.byte	0x1c
 1188 0485 32       		.byte	0x32
 1189 0486 24       		.byte	0x24
 1190 0487 75       		.byte	0x75
 1191 0488 00       		.sleb128 0
 1192 0489 22       		.byte	0x22
 1193 048a 23       		.byte	0x23
 1194 048b 1A       		.uleb128 0x1a
 1195 048c 94       		.byte	0x94
 1196 048d 01       		.byte	0x1
 1197 048e 08       		.byte	0x8
 1198 048f FF       		.byte	0xff
 1199 0490 1A       		.byte	0x1a
 1200 0491 00       		.byte	0
 1201 0492 00       		.byte	0
 1202 0493 0F       		.uleb128 0xf
 1203 0494 04       		.byte	0x4
 1204 0495 99040000 		.4byte	0x499
 1205 0499 1A       		.uleb128 0x1a
 1206 049a 1C030000 		.4byte	0x31c
 1207 049e 13       		.uleb128 0x13
 1208 049f 0F060000 		.4byte	.LASF73
 1209 04a3 01       		.byte	0x1
 1210 04a4 C701     		.2byte	0x1c7
 1211 04a6 00000000 		.4byte	.LFB131
 1212 04aa 28000000 		.4byte	.LFE131-.LFB131
 1213 04ae 01       		.uleb128 0x1
 1214 04af 9C       		.byte	0x9c
 1215 04b0 07050000 		.4byte	0x507
 1216 04b4 15       		.uleb128 0x15
 1217 04b5 91050000 		.4byte	.LASF70
 1218 04b9 01       		.byte	0x1
 1219 04ba C701     		.2byte	0x1c7
 1220 04bc 0A010000 		.4byte	0x10a
 1221 04c0 3F010000 		.4byte	.LLST8
 1222 04c4 16       		.uleb128 0x16
 1223 04c5 3D000000 		.4byte	.LASF71
 1224 04c9 01       		.byte	0x1
 1225 04ca C901     		.2byte	0x1c9
 1226 04cc 0A010000 		.4byte	0x10a
 1227 04d0 6B010000 		.4byte	.LLST9
 1228 04d4 16       		.uleb128 0x16
 1229 04d5 4D050000 		.4byte	.LASF74
 1230 04d9 01       		.byte	0x1
 1231 04da CA01     		.2byte	0x1ca
 1232 04dc 0A010000 		.4byte	0x10a
 1233 04e0 9F010000 		.4byte	.LLST10
 1234 04e4 19       		.uleb128 0x19
 1235 04e5 E1030000 		.4byte	.LASF75
ARM GAS  C:\Users\DAVIDW~1\AppData\Local\Temp\cc8ZNA3W.s 			page 54


 1236 04e9 01       		.byte	0x1
 1237 04ea CC01     		.2byte	0x1cc
 1238 04ec 93040000 		.4byte	0x493
 1239 04f0 17       		.uleb128 0x17
 1240 04f1 1A000000 		.4byte	.LVL21
 1241 04f5 14040000 		.4byte	0x414
 1242 04f9 18       		.uleb128 0x18
 1243 04fa 01       		.uleb128 0x1
 1244 04fb 50       		.byte	0x50
 1245 04fc 02       		.uleb128 0x2
 1246 04fd 75       		.byte	0x75
 1247 04fe 00       		.sleb128 0
 1248 04ff 18       		.uleb128 0x18
 1249 0500 01       		.uleb128 0x1
 1250 0501 51       		.byte	0x51
 1251 0502 02       		.uleb128 0x2
 1252 0503 74       		.byte	0x74
 1253 0504 00       		.sleb128 0
 1254 0505 00       		.byte	0
 1255 0506 00       		.byte	0
 1256 0507 13       		.uleb128 0x13
 1257 0508 6D000000 		.4byte	.LASF76
 1258 050c 01       		.byte	0x1
 1259 050d A301     		.2byte	0x1a3
 1260 050f 00000000 		.4byte	.LFB130
 1261 0513 16000000 		.4byte	.LFE130-.LFB130
 1262 0517 01       		.uleb128 0x1
 1263 0518 9C       		.byte	0x9c
 1264 0519 3E050000 		.4byte	0x53e
 1265 051d 16       		.uleb128 0x16
 1266 051e 91050000 		.4byte	.LASF70
 1267 0522 01       		.byte	0x1
 1268 0523 A501     		.2byte	0x1a5
 1269 0525 0A010000 		.4byte	0x10a
 1270 0529 B2010000 		.4byte	.LLST11
 1271 052d 17       		.uleb128 0x17
 1272 052e 0C000000 		.4byte	.LVL27
 1273 0532 9E040000 		.4byte	0x49e
 1274 0536 18       		.uleb128 0x18
 1275 0537 01       		.uleb128 0x1
 1276 0538 50       		.byte	0x50
 1277 0539 02       		.uleb128 0x2
 1278 053a 74       		.byte	0x74
 1279 053b 00       		.sleb128 0
 1280 053c 00       		.byte	0
 1281 053d 00       		.byte	0
 1282 053e 1B       		.uleb128 0x1b
 1283 053f 76020000 		.4byte	.LASF81
 1284 0543 01       		.byte	0x1
 1285 0544 A506     		.2byte	0x6a5
 1286 0546 0A010000 		.4byte	0x10a
 1287 054a 00000000 		.4byte	.LFB135
 1288 054e 14000000 		.4byte	.LFE135-.LFB135
 1289 0552 01       		.uleb128 0x1
 1290 0553 9C       		.byte	0x9c
 1291 0554 A5050000 		.4byte	0x5a5
 1292 0558 15       		.uleb128 0x15
ARM GAS  C:\Users\DAVIDW~1\AppData\Local\Temp\cc8ZNA3W.s 			page 55


 1293 0559 9F000000 		.4byte	.LASF77
 1294 055d 01       		.byte	0x1
 1295 055e A506     		.2byte	0x6a5
 1296 0560 0A010000 		.4byte	0x10a
 1297 0564 E7010000 		.4byte	.LLST12
 1298 0568 15       		.uleb128 0x15
 1299 0569 DD050000 		.4byte	.LASF78
 1300 056d 01       		.byte	0x1
 1301 056e A506     		.2byte	0x6a5
 1302 0570 0A010000 		.4byte	0x10a
 1303 0574 08020000 		.4byte	.LLST13
 1304 0578 1C       		.uleb128 0x1c
 1305 0579 6E00     		.ascii	"n\000"
 1306 057b 01       		.byte	0x1
 1307 057c A506     		.2byte	0x6a5
 1308 057e 0A010000 		.4byte	0x10a
 1309 0582 01       		.uleb128 0x1
 1310 0583 52       		.byte	0x52
 1311 0584 15       		.uleb128 0x15
 1312 0585 C7020000 		.4byte	.LASF79
 1313 0589 01       		.byte	0x1
 1314 058a A506     		.2byte	0x6a5
 1315 058c 0A010000 		.4byte	0x10a
 1316 0590 29020000 		.4byte	.LLST14
 1317 0594 16       		.uleb128 0x16
 1318 0595 A3010000 		.4byte	.LASF80
 1319 0599 01       		.byte	0x1
 1320 059a A706     		.2byte	0x6a7
 1321 059c 0A010000 		.4byte	0x10a
 1322 05a0 4A020000 		.4byte	.LLST15
 1323 05a4 00       		.byte	0
 1324 05a5 1D       		.uleb128 0x1d
 1325 05a6 33050000 		.4byte	.LASF82
 1326 05aa 01       		.byte	0x1
 1327 05ab FF       		.byte	0xff
 1328 05ac 0A010000 		.4byte	0x10a
 1329 05b0 00000000 		.4byte	.LFB129
 1330 05b4 C4000000 		.4byte	.LFE129-.LFB129
 1331 05b8 01       		.uleb128 0x1
 1332 05b9 9C       		.byte	0x9c
 1333 05ba 98060000 		.4byte	0x698
 1334 05be 15       		.uleb128 0x15
 1335 05bf 3D020000 		.4byte	.LASF83
 1336 05c3 01       		.byte	0x1
 1337 05c4 0001     		.2byte	0x100
 1338 05c6 98060000 		.4byte	0x698
 1339 05ca 6C020000 		.4byte	.LLST16
 1340 05ce 15       		.uleb128 0x15
 1341 05cf 92060000 		.4byte	.LASF64
 1342 05d3 01       		.byte	0x1
 1343 05d4 0101     		.2byte	0x101
 1344 05d6 10030000 		.4byte	0x310
 1345 05da 8A020000 		.4byte	.LLST17
 1346 05de 15       		.uleb128 0x15
 1347 05df E9000000 		.4byte	.LASF65
 1348 05e3 01       		.byte	0x1
 1349 05e4 0201     		.2byte	0x102
ARM GAS  C:\Users\DAVIDW~1\AppData\Local\Temp\cc8ZNA3W.s 			page 56


 1350 05e6 0A010000 		.4byte	0x10a
 1351 05ea A8020000 		.4byte	.LLST18
 1352 05ee 16       		.uleb128 0x16
 1353 05ef B3050000 		.4byte	.LASF84
 1354 05f3 01       		.byte	0x1
 1355 05f4 0401     		.2byte	0x104
 1356 05f6 0A010000 		.4byte	0x10a
 1357 05fa C6020000 		.4byte	.LLST19
 1358 05fe 16       		.uleb128 0x16
 1359 05ff D5000000 		.4byte	.LASF85
 1360 0603 01       		.byte	0x1
 1361 0604 0501     		.2byte	0x105
 1362 0606 0A010000 		.4byte	0x10a
 1363 060a 07030000 		.4byte	.LLST20
 1364 060e 16       		.uleb128 0x16
 1365 060f 4C040000 		.4byte	.LASF72
 1366 0613 01       		.byte	0x1
 1367 0614 0601     		.2byte	0x106
 1368 0616 0A010000 		.4byte	0x10a
 1369 061a 30030000 		.4byte	.LLST21
 1370 061e 16       		.uleb128 0x16
 1371 061f 67050000 		.4byte	.LASF86
 1372 0623 01       		.byte	0x1
 1373 0624 0701     		.2byte	0x107
 1374 0626 0A010000 		.4byte	0x10a
 1375 062a 65030000 		.4byte	.LLST22
 1376 062e 1E       		.uleb128 0x1e
 1377 062f 31000000 		.4byte	.LASF87
 1378 0633 01       		.byte	0x1
 1379 0634 0801     		.2byte	0x108
 1380 0636 0A010000 		.4byte	0x10a
 1381 063a 00       		.byte	0
 1382 063b 16       		.uleb128 0x16
 1383 063c BD010000 		.4byte	.LASF88
 1384 0640 01       		.byte	0x1
 1385 0641 0B01     		.2byte	0x10b
 1386 0643 0A010000 		.4byte	0x10a
 1387 0647 85030000 		.4byte	.LLST23
 1388 064b 1F       		.uleb128 0x1f
 1389 064c 4E000000 		.4byte	.LVL45
 1390 0650 6C030000 		.4byte	0x36c
 1391 0654 6B060000 		.4byte	0x66b
 1392 0658 18       		.uleb128 0x18
 1393 0659 01       		.uleb128 0x1
 1394 065a 50       		.byte	0x50
 1395 065b 02       		.uleb128 0x2
 1396 065c 75       		.byte	0x75
 1397 065d 00       		.sleb128 0
 1398 065e 18       		.uleb128 0x18
 1399 065f 01       		.uleb128 0x1
 1400 0660 51       		.byte	0x51
 1401 0661 02       		.uleb128 0x2
 1402 0662 77       		.byte	0x77
 1403 0663 00       		.sleb128 0
 1404 0664 18       		.uleb128 0x18
 1405 0665 01       		.uleb128 0x1
 1406 0666 52       		.byte	0x52
ARM GAS  C:\Users\DAVIDW~1\AppData\Local\Temp\cc8ZNA3W.s 			page 57


 1407 0667 02       		.uleb128 0x2
 1408 0668 74       		.byte	0x74
 1409 0669 00       		.sleb128 0
 1410 066a 00       		.byte	0
 1411 066b 1F       		.uleb128 0x1f
 1412 066c 84000000 		.4byte	.LVL52
 1413 0670 3E050000 		.4byte	0x53e
 1414 0674 83060000 		.4byte	0x683
 1415 0678 18       		.uleb128 0x18
 1416 0679 01       		.uleb128 0x1
 1417 067a 52       		.byte	0x52
 1418 067b 01       		.uleb128 0x1
 1419 067c 31       		.byte	0x31
 1420 067d 18       		.uleb128 0x18
 1421 067e 01       		.uleb128 0x1
 1422 067f 53       		.byte	0x53
 1423 0680 01       		.uleb128 0x1
 1424 0681 38       		.byte	0x38
 1425 0682 00       		.byte	0
 1426 0683 17       		.uleb128 0x17
 1427 0684 A8000000 		.4byte	.LVL57
 1428 0688 3E050000 		.4byte	0x53e
 1429 068c 18       		.uleb128 0x18
 1430 068d 01       		.uleb128 0x1
 1431 068e 52       		.byte	0x52
 1432 068f 01       		.uleb128 0x1
 1433 0690 31       		.byte	0x31
 1434 0691 18       		.uleb128 0x18
 1435 0692 01       		.uleb128 0x1
 1436 0693 53       		.byte	0x53
 1437 0694 01       		.uleb128 0x1
 1438 0695 38       		.byte	0x38
 1439 0696 00       		.byte	0
 1440 0697 00       		.byte	0
 1441 0698 0F       		.uleb128 0xf
 1442 0699 04       		.byte	0x4
 1443 069a F9010000 		.4byte	0x1f9
 1444 069e 1D       		.uleb128 0x1d
 1445 069f 01020000 		.4byte	.LASF89
 1446 06a3 01       		.byte	0x1
 1447 06a4 C8       		.byte	0xc8
 1448 06a5 E6000000 		.4byte	0xe6
 1449 06a9 00000000 		.4byte	.LFB128
 1450 06ad 24000000 		.4byte	.LFE128-.LFB128
 1451 06b1 01       		.uleb128 0x1
 1452 06b2 9C       		.byte	0x9c
 1453 06b3 4F070000 		.4byte	0x74f
 1454 06b7 20       		.uleb128 0x20
 1455 06b8 91050000 		.4byte	.LASF70
 1456 06bc 01       		.byte	0x1
 1457 06bd C8       		.byte	0xc8
 1458 06be 0A010000 		.4byte	0x10a
 1459 06c2 FB030000 		.4byte	.LLST24
 1460 06c6 20       		.uleb128 0x20
 1461 06c7 3D000000 		.4byte	.LASF71
 1462 06cb 01       		.byte	0x1
 1463 06cc C8       		.byte	0xc8
ARM GAS  C:\Users\DAVIDW~1\AppData\Local\Temp\cc8ZNA3W.s 			page 58


 1464 06cd 0A010000 		.4byte	0x10a
 1465 06d1 1C040000 		.4byte	.LLST25
 1466 06d5 21       		.uleb128 0x21
 1467 06d6 31000000 		.4byte	.LASF87
 1468 06da 01       		.byte	0x1
 1469 06db CA       		.byte	0xca
 1470 06dc 0A010000 		.4byte	0x10a
 1471 06e0 3D040000 		.4byte	.LLST26
 1472 06e4 21       		.uleb128 0x21
 1473 06e5 92060000 		.4byte	.LASF64
 1474 06e9 01       		.byte	0x1
 1475 06ea CC       		.byte	0xcc
 1476 06eb 10030000 		.4byte	0x310
 1477 06ef 5C040000 		.4byte	.LLST27
 1478 06f3 22       		.uleb128 0x22
 1479 06f4 E1030000 		.4byte	.LASF75
 1480 06f8 01       		.byte	0x1
 1481 06f9 CD       		.byte	0xcd
 1482 06fa 93040000 		.4byte	0x493
 1483 06fe 21       		.uleb128 0x21
 1484 06ff 3D020000 		.4byte	.LASF83
 1485 0703 01       		.byte	0x1
 1486 0704 CE       		.byte	0xce
 1487 0705 98060000 		.4byte	0x698
 1488 0709 A6040000 		.4byte	.LLST28
 1489 070d 17       		.uleb128 0x17
 1490 070e 1E000000 		.4byte	.LVL69
 1491 0712 A5050000 		.4byte	0x5a5
 1492 0716 18       		.uleb128 0x18
 1493 0717 01       		.uleb128 0x1
 1494 0718 50       		.byte	0x50
 1495 0719 11       		.uleb128 0x11
 1496 071a F3       		.byte	0xf3
 1497 071b 01       		.uleb128 0x1
 1498 071c 50       		.byte	0x50
 1499 071d 33       		.byte	0x33
 1500 071e 24       		.byte	0x24
 1501 071f F3       		.byte	0xf3
 1502 0720 01       		.uleb128 0x1
 1503 0721 50       		.byte	0x50
 1504 0722 1C       		.byte	0x1c
 1505 0723 32       		.byte	0x32
 1506 0724 24       		.byte	0x24
 1507 0725 76       		.byte	0x76
 1508 0726 00       		.sleb128 0
 1509 0727 22       		.byte	0x22
 1510 0728 23       		.byte	0x23
 1511 0729 04       		.uleb128 0x4
 1512 072a 06       		.byte	0x6
 1513 072b 18       		.uleb128 0x18
 1514 072c 01       		.uleb128 0x1
 1515 072d 51       		.byte	0x51
 1516 072e 05       		.uleb128 0x5
 1517 072f 74       		.byte	0x74
 1518 0730 00       		.sleb128 0
 1519 0731 75       		.byte	0x75
 1520 0732 00       		.sleb128 0
ARM GAS  C:\Users\DAVIDW~1\AppData\Local\Temp\cc8ZNA3W.s 			page 59


 1521 0733 22       		.byte	0x22
 1522 0734 18       		.uleb128 0x18
 1523 0735 01       		.uleb128 0x1
 1524 0736 52       		.byte	0x52
 1525 0737 15       		.uleb128 0x15
 1526 0738 F3       		.byte	0xf3
 1527 0739 01       		.uleb128 0x1
 1528 073a 50       		.byte	0x50
 1529 073b 33       		.byte	0x33
 1530 073c 24       		.byte	0x24
 1531 073d F3       		.byte	0xf3
 1532 073e 01       		.uleb128 0x1
 1533 073f 50       		.byte	0x50
 1534 0740 1C       		.byte	0x1c
 1535 0741 32       		.byte	0x32
 1536 0742 24       		.byte	0x24
 1537 0743 76       		.byte	0x76
 1538 0744 00       		.sleb128 0
 1539 0745 22       		.byte	0x22
 1540 0746 23       		.byte	0x23
 1541 0747 1A       		.uleb128 0x1a
 1542 0748 94       		.byte	0x94
 1543 0749 01       		.byte	0x1
 1544 074a 08       		.byte	0x8
 1545 074b FF       		.byte	0xff
 1546 074c 1A       		.byte	0x1a
 1547 074d 00       		.byte	0
 1548 074e 00       		.byte	0
 1549 074f 1D       		.uleb128 0x1d
 1550 0750 70040000 		.4byte	.LASF90
 1551 0754 01       		.byte	0x1
 1552 0755 8F       		.byte	0x8f
 1553 0756 E6000000 		.4byte	0xe6
 1554 075a 00000000 		.4byte	.LFB127
 1555 075e 30000000 		.4byte	.LFE127-.LFB127
 1556 0762 01       		.uleb128 0x1
 1557 0763 9C       		.byte	0x9c
 1558 0764 C6070000 		.4byte	0x7c6
 1559 0768 20       		.uleb128 0x20
 1560 0769 91050000 		.4byte	.LASF70
 1561 076d 01       		.byte	0x1
 1562 076e 8F       		.byte	0x8f
 1563 076f 0A010000 		.4byte	0x10a
 1564 0773 D4040000 		.4byte	.LLST29
 1565 0777 21       		.uleb128 0x21
 1566 0778 3D000000 		.4byte	.LASF71
 1567 077c 01       		.byte	0x1
 1568 077d 91       		.byte	0x91
 1569 077e 0A010000 		.4byte	0x10a
 1570 0782 00050000 		.4byte	.LLST30
 1571 0786 21       		.uleb128 0x21
 1572 0787 4D050000 		.4byte	.LASF74
 1573 078b 01       		.byte	0x1
 1574 078c 92       		.byte	0x92
 1575 078d 0A010000 		.4byte	0x10a
 1576 0791 41050000 		.4byte	.LLST31
 1577 0795 22       		.uleb128 0x22
ARM GAS  C:\Users\DAVIDW~1\AppData\Local\Temp\cc8ZNA3W.s 			page 60


 1578 0796 E1030000 		.4byte	.LASF75
 1579 079a 01       		.byte	0x1
 1580 079b 94       		.byte	0x94
 1581 079c 93040000 		.4byte	0x493
 1582 07a0 21       		.uleb128 0x21
 1583 07a1 46000000 		.4byte	.LASF91
 1584 07a5 01       		.byte	0x1
 1585 07a6 95       		.byte	0x95
 1586 07a7 E6000000 		.4byte	0xe6
 1587 07ab 54050000 		.4byte	.LLST32
 1588 07af 17       		.uleb128 0x17
 1589 07b0 1C000000 		.4byte	.LVL75
 1590 07b4 9E060000 		.4byte	0x69e
 1591 07b8 18       		.uleb128 0x18
 1592 07b9 01       		.uleb128 0x1
 1593 07ba 50       		.byte	0x50
 1594 07bb 02       		.uleb128 0x2
 1595 07bc 76       		.byte	0x76
 1596 07bd 00       		.sleb128 0
 1597 07be 18       		.uleb128 0x18
 1598 07bf 01       		.uleb128 0x1
 1599 07c0 51       		.byte	0x51
 1600 07c1 02       		.uleb128 0x2
 1601 07c2 74       		.byte	0x74
 1602 07c3 00       		.sleb128 0
 1603 07c4 00       		.byte	0
 1604 07c5 00       		.byte	0
 1605 07c6 1D       		.uleb128 0x1d
 1606 07c7 BD040000 		.4byte	.LASF92
 1607 07cb 01       		.byte	0x1
 1608 07cc 62       		.byte	0x62
 1609 07cd E6000000 		.4byte	0xe6
 1610 07d1 00000000 		.4byte	.LFB126
 1611 07d5 1C000000 		.4byte	.LFE126-.LFB126
 1612 07d9 01       		.uleb128 0x1
 1613 07da 9C       		.byte	0x9c
 1614 07db 0E080000 		.4byte	0x80e
 1615 07df 21       		.uleb128 0x21
 1616 07e0 91050000 		.4byte	.LASF70
 1617 07e4 01       		.byte	0x1
 1618 07e5 64       		.byte	0x64
 1619 07e6 0A010000 		.4byte	0x10a
 1620 07ea 7E050000 		.4byte	.LLST33
 1621 07ee 21       		.uleb128 0x21
 1622 07ef 46000000 		.4byte	.LASF91
 1623 07f3 01       		.byte	0x1
 1624 07f4 65       		.byte	0x65
 1625 07f5 E6000000 		.4byte	0xe6
 1626 07f9 B3050000 		.4byte	.LLST34
 1627 07fd 17       		.uleb128 0x17
 1628 07fe 0E000000 		.4byte	.LVL82
 1629 0802 4F070000 		.4byte	0x74f
 1630 0806 18       		.uleb128 0x18
 1631 0807 01       		.uleb128 0x1
 1632 0808 50       		.byte	0x50
 1633 0809 02       		.uleb128 0x2
 1634 080a 74       		.byte	0x74
ARM GAS  C:\Users\DAVIDW~1\AppData\Local\Temp\cc8ZNA3W.s 			page 61


 1635 080b 00       		.sleb128 0
 1636 080c 00       		.byte	0
 1637 080d 00       		.byte	0
 1638 080e 23       		.uleb128 0x23
 1639 080f 78060000 		.4byte	.LASF93
 1640 0813 07       		.byte	0x7
 1641 0814 EA07     		.2byte	0x7ea
 1642 0816 1A080000 		.4byte	0x81a
 1643 081a 24       		.uleb128 0x24
 1644 081b B4000000 		.4byte	0xb4
 1645 081f 23       		.uleb128 0x23
 1646 0820 4B060000 		.4byte	.LASF94
 1647 0824 06       		.byte	0x6
 1648 0825 4704     		.2byte	0x447
 1649 0827 2B080000 		.4byte	0x82b
 1650 082b 1A       		.uleb128 0x1a
 1651 082c 4F030000 		.4byte	0x34f
 1652 0830 00       		.byte	0
 1653              		.section	.debug_abbrev,"",%progbits
 1654              	.Ldebug_abbrev0:
 1655 0000 01       		.uleb128 0x1
 1656 0001 11       		.uleb128 0x11
 1657 0002 01       		.byte	0x1
 1658 0003 25       		.uleb128 0x25
 1659 0004 0E       		.uleb128 0xe
 1660 0005 13       		.uleb128 0x13
 1661 0006 0B       		.uleb128 0xb
 1662 0007 03       		.uleb128 0x3
 1663 0008 0E       		.uleb128 0xe
 1664 0009 1B       		.uleb128 0x1b
 1665 000a 0E       		.uleb128 0xe
 1666 000b 55       		.uleb128 0x55
 1667 000c 17       		.uleb128 0x17
 1668 000d 11       		.uleb128 0x11
 1669 000e 01       		.uleb128 0x1
 1670 000f 10       		.uleb128 0x10
 1671 0010 17       		.uleb128 0x17
 1672 0011 00       		.byte	0
 1673 0012 00       		.byte	0
 1674 0013 02       		.uleb128 0x2
 1675 0014 24       		.uleb128 0x24
 1676 0015 00       		.byte	0
 1677 0016 0B       		.uleb128 0xb
 1678 0017 0B       		.uleb128 0xb
 1679 0018 3E       		.uleb128 0x3e
 1680 0019 0B       		.uleb128 0xb
 1681 001a 03       		.uleb128 0x3
 1682 001b 08       		.uleb128 0x8
 1683 001c 00       		.byte	0
 1684 001d 00       		.byte	0
 1685 001e 03       		.uleb128 0x3
 1686 001f 24       		.uleb128 0x24
 1687 0020 00       		.byte	0
 1688 0021 0B       		.uleb128 0xb
 1689 0022 0B       		.uleb128 0xb
 1690 0023 3E       		.uleb128 0x3e
 1691 0024 0B       		.uleb128 0xb
ARM GAS  C:\Users\DAVIDW~1\AppData\Local\Temp\cc8ZNA3W.s 			page 62


 1692 0025 03       		.uleb128 0x3
 1693 0026 0E       		.uleb128 0xe
 1694 0027 00       		.byte	0
 1695 0028 00       		.byte	0
 1696 0029 04       		.uleb128 0x4
 1697 002a 16       		.uleb128 0x16
 1698 002b 00       		.byte	0
 1699 002c 03       		.uleb128 0x3
 1700 002d 0E       		.uleb128 0xe
 1701 002e 3A       		.uleb128 0x3a
 1702 002f 0B       		.uleb128 0xb
 1703 0030 3B       		.uleb128 0x3b
 1704 0031 0B       		.uleb128 0xb
 1705 0032 49       		.uleb128 0x49
 1706 0033 13       		.uleb128 0x13
 1707 0034 00       		.byte	0
 1708 0035 00       		.byte	0
 1709 0036 05       		.uleb128 0x5
 1710 0037 16       		.uleb128 0x16
 1711 0038 00       		.byte	0
 1712 0039 03       		.uleb128 0x3
 1713 003a 0E       		.uleb128 0xe
 1714 003b 3A       		.uleb128 0x3a
 1715 003c 0B       		.uleb128 0xb
 1716 003d 3B       		.uleb128 0x3b
 1717 003e 05       		.uleb128 0x5
 1718 003f 49       		.uleb128 0x49
 1719 0040 13       		.uleb128 0x13
 1720 0041 00       		.byte	0
 1721 0042 00       		.byte	0
 1722 0043 06       		.uleb128 0x6
 1723 0044 04       		.uleb128 0x4
 1724 0045 01       		.byte	0x1
 1725 0046 0B       		.uleb128 0xb
 1726 0047 0B       		.uleb128 0xb
 1727 0048 49       		.uleb128 0x49
 1728 0049 13       		.uleb128 0x13
 1729 004a 3A       		.uleb128 0x3a
 1730 004b 0B       		.uleb128 0xb
 1731 004c 3B       		.uleb128 0x3b
 1732 004d 0B       		.uleb128 0xb
 1733 004e 01       		.uleb128 0x1
 1734 004f 13       		.uleb128 0x13
 1735 0050 00       		.byte	0
 1736 0051 00       		.byte	0
 1737 0052 07       		.uleb128 0x7
 1738 0053 28       		.uleb128 0x28
 1739 0054 00       		.byte	0
 1740 0055 03       		.uleb128 0x3
 1741 0056 0E       		.uleb128 0xe
 1742 0057 1C       		.uleb128 0x1c
 1743 0058 0B       		.uleb128 0xb
 1744 0059 00       		.byte	0
 1745 005a 00       		.byte	0
 1746 005b 08       		.uleb128 0x8
 1747 005c 13       		.uleb128 0x13
 1748 005d 01       		.byte	0x1
ARM GAS  C:\Users\DAVIDW~1\AppData\Local\Temp\cc8ZNA3W.s 			page 63


 1749 005e 0B       		.uleb128 0xb
 1750 005f 0B       		.uleb128 0xb
 1751 0060 3A       		.uleb128 0x3a
 1752 0061 0B       		.uleb128 0xb
 1753 0062 3B       		.uleb128 0x3b
 1754 0063 0B       		.uleb128 0xb
 1755 0064 01       		.uleb128 0x1
 1756 0065 13       		.uleb128 0x13
 1757 0066 00       		.byte	0
 1758 0067 00       		.byte	0
 1759 0068 09       		.uleb128 0x9
 1760 0069 0D       		.uleb128 0xd
 1761 006a 00       		.byte	0
 1762 006b 03       		.uleb128 0x3
 1763 006c 0E       		.uleb128 0xe
 1764 006d 3A       		.uleb128 0x3a
 1765 006e 0B       		.uleb128 0xb
 1766 006f 3B       		.uleb128 0x3b
 1767 0070 0B       		.uleb128 0xb
 1768 0071 49       		.uleb128 0x49
 1769 0072 13       		.uleb128 0x13
 1770 0073 38       		.uleb128 0x38
 1771 0074 0B       		.uleb128 0xb
 1772 0075 00       		.byte	0
 1773 0076 00       		.byte	0
 1774 0077 0A       		.uleb128 0xa
 1775 0078 01       		.uleb128 0x1
 1776 0079 01       		.byte	0x1
 1777 007a 49       		.uleb128 0x49
 1778 007b 13       		.uleb128 0x13
 1779 007c 01       		.uleb128 0x1
 1780 007d 13       		.uleb128 0x13
 1781 007e 00       		.byte	0
 1782 007f 00       		.byte	0
 1783 0080 0B       		.uleb128 0xb
 1784 0081 21       		.uleb128 0x21
 1785 0082 00       		.byte	0
 1786 0083 49       		.uleb128 0x49
 1787 0084 13       		.uleb128 0x13
 1788 0085 2F       		.uleb128 0x2f
 1789 0086 0B       		.uleb128 0xb
 1790 0087 00       		.byte	0
 1791 0088 00       		.byte	0
 1792 0089 0C       		.uleb128 0xc
 1793 008a 13       		.uleb128 0x13
 1794 008b 01       		.byte	0x1
 1795 008c 0B       		.uleb128 0xb
 1796 008d 0B       		.uleb128 0xb
 1797 008e 3A       		.uleb128 0x3a
 1798 008f 0B       		.uleb128 0xb
 1799 0090 3B       		.uleb128 0x3b
 1800 0091 05       		.uleb128 0x5
 1801 0092 01       		.uleb128 0x1
 1802 0093 13       		.uleb128 0x13
 1803 0094 00       		.byte	0
 1804 0095 00       		.byte	0
 1805 0096 0D       		.uleb128 0xd
ARM GAS  C:\Users\DAVIDW~1\AppData\Local\Temp\cc8ZNA3W.s 			page 64


 1806 0097 0D       		.uleb128 0xd
 1807 0098 00       		.byte	0
 1808 0099 03       		.uleb128 0x3
 1809 009a 08       		.uleb128 0x8
 1810 009b 3A       		.uleb128 0x3a
 1811 009c 0B       		.uleb128 0xb
 1812 009d 3B       		.uleb128 0x3b
 1813 009e 05       		.uleb128 0x5
 1814 009f 49       		.uleb128 0x49
 1815 00a0 13       		.uleb128 0x13
 1816 00a1 38       		.uleb128 0x38
 1817 00a2 0B       		.uleb128 0xb
 1818 00a3 00       		.byte	0
 1819 00a4 00       		.byte	0
 1820 00a5 0E       		.uleb128 0xe
 1821 00a6 0D       		.uleb128 0xd
 1822 00a7 00       		.byte	0
 1823 00a8 03       		.uleb128 0x3
 1824 00a9 0E       		.uleb128 0xe
 1825 00aa 3A       		.uleb128 0x3a
 1826 00ab 0B       		.uleb128 0xb
 1827 00ac 3B       		.uleb128 0x3b
 1828 00ad 05       		.uleb128 0x5
 1829 00ae 49       		.uleb128 0x49
 1830 00af 13       		.uleb128 0x13
 1831 00b0 38       		.uleb128 0x38
 1832 00b1 0B       		.uleb128 0xb
 1833 00b2 00       		.byte	0
 1834 00b3 00       		.byte	0
 1835 00b4 0F       		.uleb128 0xf
 1836 00b5 0F       		.uleb128 0xf
 1837 00b6 00       		.byte	0
 1838 00b7 0B       		.uleb128 0xb
 1839 00b8 0B       		.uleb128 0xb
 1840 00b9 49       		.uleb128 0x49
 1841 00ba 13       		.uleb128 0x13
 1842 00bb 00       		.byte	0
 1843 00bc 00       		.byte	0
 1844 00bd 10       		.uleb128 0x10
 1845 00be 26       		.uleb128 0x26
 1846 00bf 00       		.byte	0
 1847 00c0 00       		.byte	0
 1848 00c1 00       		.byte	0
 1849 00c2 11       		.uleb128 0x11
 1850 00c3 0F       		.uleb128 0xf
 1851 00c4 00       		.byte	0
 1852 00c5 0B       		.uleb128 0xb
 1853 00c6 0B       		.uleb128 0xb
 1854 00c7 00       		.byte	0
 1855 00c8 00       		.byte	0
 1856 00c9 12       		.uleb128 0x12
 1857 00ca 2E       		.uleb128 0x2e
 1858 00cb 00       		.byte	0
 1859 00cc 3F       		.uleb128 0x3f
 1860 00cd 19       		.uleb128 0x19
 1861 00ce 03       		.uleb128 0x3
 1862 00cf 0E       		.uleb128 0xe
ARM GAS  C:\Users\DAVIDW~1\AppData\Local\Temp\cc8ZNA3W.s 			page 65


 1863 00d0 3A       		.uleb128 0x3a
 1864 00d1 0B       		.uleb128 0xb
 1865 00d2 3B       		.uleb128 0x3b
 1866 00d3 0B       		.uleb128 0xb
 1867 00d4 27       		.uleb128 0x27
 1868 00d5 19       		.uleb128 0x19
 1869 00d6 11       		.uleb128 0x11
 1870 00d7 01       		.uleb128 0x1
 1871 00d8 12       		.uleb128 0x12
 1872 00d9 06       		.uleb128 0x6
 1873 00da 40       		.uleb128 0x40
 1874 00db 18       		.uleb128 0x18
 1875 00dc 9742     		.uleb128 0x2117
 1876 00de 19       		.uleb128 0x19
 1877 00df 00       		.byte	0
 1878 00e0 00       		.byte	0
 1879 00e1 13       		.uleb128 0x13
 1880 00e2 2E       		.uleb128 0x2e
 1881 00e3 01       		.byte	0x1
 1882 00e4 3F       		.uleb128 0x3f
 1883 00e5 19       		.uleb128 0x19
 1884 00e6 03       		.uleb128 0x3
 1885 00e7 0E       		.uleb128 0xe
 1886 00e8 3A       		.uleb128 0x3a
 1887 00e9 0B       		.uleb128 0xb
 1888 00ea 3B       		.uleb128 0x3b
 1889 00eb 05       		.uleb128 0x5
 1890 00ec 27       		.uleb128 0x27
 1891 00ed 19       		.uleb128 0x19
 1892 00ee 11       		.uleb128 0x11
 1893 00ef 01       		.uleb128 0x1
 1894 00f0 12       		.uleb128 0x12
 1895 00f1 06       		.uleb128 0x6
 1896 00f2 40       		.uleb128 0x40
 1897 00f3 18       		.uleb128 0x18
 1898 00f4 9742     		.uleb128 0x2117
 1899 00f6 19       		.uleb128 0x19
 1900 00f7 01       		.uleb128 0x1
 1901 00f8 13       		.uleb128 0x13
 1902 00f9 00       		.byte	0
 1903 00fa 00       		.byte	0
 1904 00fb 14       		.uleb128 0x14
 1905 00fc 05       		.uleb128 0x5
 1906 00fd 00       		.byte	0
 1907 00fe 03       		.uleb128 0x3
 1908 00ff 0E       		.uleb128 0xe
 1909 0100 3A       		.uleb128 0x3a
 1910 0101 0B       		.uleb128 0xb
 1911 0102 3B       		.uleb128 0x3b
 1912 0103 05       		.uleb128 0x5
 1913 0104 49       		.uleb128 0x49
 1914 0105 13       		.uleb128 0x13
 1915 0106 02       		.uleb128 0x2
 1916 0107 18       		.uleb128 0x18
 1917 0108 00       		.byte	0
 1918 0109 00       		.byte	0
 1919 010a 15       		.uleb128 0x15
ARM GAS  C:\Users\DAVIDW~1\AppData\Local\Temp\cc8ZNA3W.s 			page 66


 1920 010b 05       		.uleb128 0x5
 1921 010c 00       		.byte	0
 1922 010d 03       		.uleb128 0x3
 1923 010e 0E       		.uleb128 0xe
 1924 010f 3A       		.uleb128 0x3a
 1925 0110 0B       		.uleb128 0xb
 1926 0111 3B       		.uleb128 0x3b
 1927 0112 05       		.uleb128 0x5
 1928 0113 49       		.uleb128 0x49
 1929 0114 13       		.uleb128 0x13
 1930 0115 02       		.uleb128 0x2
 1931 0116 17       		.uleb128 0x17
 1932 0117 00       		.byte	0
 1933 0118 00       		.byte	0
 1934 0119 16       		.uleb128 0x16
 1935 011a 34       		.uleb128 0x34
 1936 011b 00       		.byte	0
 1937 011c 03       		.uleb128 0x3
 1938 011d 0E       		.uleb128 0xe
 1939 011e 3A       		.uleb128 0x3a
 1940 011f 0B       		.uleb128 0xb
 1941 0120 3B       		.uleb128 0x3b
 1942 0121 05       		.uleb128 0x5
 1943 0122 49       		.uleb128 0x49
 1944 0123 13       		.uleb128 0x13
 1945 0124 02       		.uleb128 0x2
 1946 0125 17       		.uleb128 0x17
 1947 0126 00       		.byte	0
 1948 0127 00       		.byte	0
 1949 0128 17       		.uleb128 0x17
 1950 0129 898201   		.uleb128 0x4109
 1951 012c 01       		.byte	0x1
 1952 012d 11       		.uleb128 0x11
 1953 012e 01       		.uleb128 0x1
 1954 012f 31       		.uleb128 0x31
 1955 0130 13       		.uleb128 0x13
 1956 0131 00       		.byte	0
 1957 0132 00       		.byte	0
 1958 0133 18       		.uleb128 0x18
 1959 0134 8A8201   		.uleb128 0x410a
 1960 0137 00       		.byte	0
 1961 0138 02       		.uleb128 0x2
 1962 0139 18       		.uleb128 0x18
 1963 013a 9142     		.uleb128 0x2111
 1964 013c 18       		.uleb128 0x18
 1965 013d 00       		.byte	0
 1966 013e 00       		.byte	0
 1967 013f 19       		.uleb128 0x19
 1968 0140 34       		.uleb128 0x34
 1969 0141 00       		.byte	0
 1970 0142 03       		.uleb128 0x3
 1971 0143 0E       		.uleb128 0xe
 1972 0144 3A       		.uleb128 0x3a
 1973 0145 0B       		.uleb128 0xb
 1974 0146 3B       		.uleb128 0x3b
 1975 0147 05       		.uleb128 0x5
 1976 0148 49       		.uleb128 0x49
ARM GAS  C:\Users\DAVIDW~1\AppData\Local\Temp\cc8ZNA3W.s 			page 67


 1977 0149 13       		.uleb128 0x13
 1978 014a 00       		.byte	0
 1979 014b 00       		.byte	0
 1980 014c 1A       		.uleb128 0x1a
 1981 014d 26       		.uleb128 0x26
 1982 014e 00       		.byte	0
 1983 014f 49       		.uleb128 0x49
 1984 0150 13       		.uleb128 0x13
 1985 0151 00       		.byte	0
 1986 0152 00       		.byte	0
 1987 0153 1B       		.uleb128 0x1b
 1988 0154 2E       		.uleb128 0x2e
 1989 0155 01       		.byte	0x1
 1990 0156 3F       		.uleb128 0x3f
 1991 0157 19       		.uleb128 0x19
 1992 0158 03       		.uleb128 0x3
 1993 0159 0E       		.uleb128 0xe
 1994 015a 3A       		.uleb128 0x3a
 1995 015b 0B       		.uleb128 0xb
 1996 015c 3B       		.uleb128 0x3b
 1997 015d 05       		.uleb128 0x5
 1998 015e 27       		.uleb128 0x27
 1999 015f 19       		.uleb128 0x19
 2000 0160 49       		.uleb128 0x49
 2001 0161 13       		.uleb128 0x13
 2002 0162 11       		.uleb128 0x11
 2003 0163 01       		.uleb128 0x1
 2004 0164 12       		.uleb128 0x12
 2005 0165 06       		.uleb128 0x6
 2006 0166 40       		.uleb128 0x40
 2007 0167 18       		.uleb128 0x18
 2008 0168 9742     		.uleb128 0x2117
 2009 016a 19       		.uleb128 0x19
 2010 016b 01       		.uleb128 0x1
 2011 016c 13       		.uleb128 0x13
 2012 016d 00       		.byte	0
 2013 016e 00       		.byte	0
 2014 016f 1C       		.uleb128 0x1c
 2015 0170 05       		.uleb128 0x5
 2016 0171 00       		.byte	0
 2017 0172 03       		.uleb128 0x3
 2018 0173 08       		.uleb128 0x8
 2019 0174 3A       		.uleb128 0x3a
 2020 0175 0B       		.uleb128 0xb
 2021 0176 3B       		.uleb128 0x3b
 2022 0177 05       		.uleb128 0x5
 2023 0178 49       		.uleb128 0x49
 2024 0179 13       		.uleb128 0x13
 2025 017a 02       		.uleb128 0x2
 2026 017b 18       		.uleb128 0x18
 2027 017c 00       		.byte	0
 2028 017d 00       		.byte	0
 2029 017e 1D       		.uleb128 0x1d
 2030 017f 2E       		.uleb128 0x2e
 2031 0180 01       		.byte	0x1
 2032 0181 3F       		.uleb128 0x3f
 2033 0182 19       		.uleb128 0x19
ARM GAS  C:\Users\DAVIDW~1\AppData\Local\Temp\cc8ZNA3W.s 			page 68


 2034 0183 03       		.uleb128 0x3
 2035 0184 0E       		.uleb128 0xe
 2036 0185 3A       		.uleb128 0x3a
 2037 0186 0B       		.uleb128 0xb
 2038 0187 3B       		.uleb128 0x3b
 2039 0188 0B       		.uleb128 0xb
 2040 0189 27       		.uleb128 0x27
 2041 018a 19       		.uleb128 0x19
 2042 018b 49       		.uleb128 0x49
 2043 018c 13       		.uleb128 0x13
 2044 018d 11       		.uleb128 0x11
 2045 018e 01       		.uleb128 0x1
 2046 018f 12       		.uleb128 0x12
 2047 0190 06       		.uleb128 0x6
 2048 0191 40       		.uleb128 0x40
 2049 0192 18       		.uleb128 0x18
 2050 0193 9742     		.uleb128 0x2117
 2051 0195 19       		.uleb128 0x19
 2052 0196 01       		.uleb128 0x1
 2053 0197 13       		.uleb128 0x13
 2054 0198 00       		.byte	0
 2055 0199 00       		.byte	0
 2056 019a 1E       		.uleb128 0x1e
 2057 019b 34       		.uleb128 0x34
 2058 019c 00       		.byte	0
 2059 019d 03       		.uleb128 0x3
 2060 019e 0E       		.uleb128 0xe
 2061 019f 3A       		.uleb128 0x3a
 2062 01a0 0B       		.uleb128 0xb
 2063 01a1 3B       		.uleb128 0x3b
 2064 01a2 05       		.uleb128 0x5
 2065 01a3 49       		.uleb128 0x49
 2066 01a4 13       		.uleb128 0x13
 2067 01a5 1C       		.uleb128 0x1c
 2068 01a6 0B       		.uleb128 0xb
 2069 01a7 00       		.byte	0
 2070 01a8 00       		.byte	0
 2071 01a9 1F       		.uleb128 0x1f
 2072 01aa 898201   		.uleb128 0x4109
 2073 01ad 01       		.byte	0x1
 2074 01ae 11       		.uleb128 0x11
 2075 01af 01       		.uleb128 0x1
 2076 01b0 31       		.uleb128 0x31
 2077 01b1 13       		.uleb128 0x13
 2078 01b2 01       		.uleb128 0x1
 2079 01b3 13       		.uleb128 0x13
 2080 01b4 00       		.byte	0
 2081 01b5 00       		.byte	0
 2082 01b6 20       		.uleb128 0x20
 2083 01b7 05       		.uleb128 0x5
 2084 01b8 00       		.byte	0
 2085 01b9 03       		.uleb128 0x3
 2086 01ba 0E       		.uleb128 0xe
 2087 01bb 3A       		.uleb128 0x3a
 2088 01bc 0B       		.uleb128 0xb
 2089 01bd 3B       		.uleb128 0x3b
 2090 01be 0B       		.uleb128 0xb
ARM GAS  C:\Users\DAVIDW~1\AppData\Local\Temp\cc8ZNA3W.s 			page 69


 2091 01bf 49       		.uleb128 0x49
 2092 01c0 13       		.uleb128 0x13
 2093 01c1 02       		.uleb128 0x2
 2094 01c2 17       		.uleb128 0x17
 2095 01c3 00       		.byte	0
 2096 01c4 00       		.byte	0
 2097 01c5 21       		.uleb128 0x21
 2098 01c6 34       		.uleb128 0x34
 2099 01c7 00       		.byte	0
 2100 01c8 03       		.uleb128 0x3
 2101 01c9 0E       		.uleb128 0xe
 2102 01ca 3A       		.uleb128 0x3a
 2103 01cb 0B       		.uleb128 0xb
 2104 01cc 3B       		.uleb128 0x3b
 2105 01cd 0B       		.uleb128 0xb
 2106 01ce 49       		.uleb128 0x49
 2107 01cf 13       		.uleb128 0x13
 2108 01d0 02       		.uleb128 0x2
 2109 01d1 17       		.uleb128 0x17
 2110 01d2 00       		.byte	0
 2111 01d3 00       		.byte	0
 2112 01d4 22       		.uleb128 0x22
 2113 01d5 34       		.uleb128 0x34
 2114 01d6 00       		.byte	0
 2115 01d7 03       		.uleb128 0x3
 2116 01d8 0E       		.uleb128 0xe
 2117 01d9 3A       		.uleb128 0x3a
 2118 01da 0B       		.uleb128 0xb
 2119 01db 3B       		.uleb128 0x3b
 2120 01dc 0B       		.uleb128 0xb
 2121 01dd 49       		.uleb128 0x49
 2122 01de 13       		.uleb128 0x13
 2123 01df 00       		.byte	0
 2124 01e0 00       		.byte	0
 2125 01e1 23       		.uleb128 0x23
 2126 01e2 34       		.uleb128 0x34
 2127 01e3 00       		.byte	0
 2128 01e4 03       		.uleb128 0x3
 2129 01e5 0E       		.uleb128 0xe
 2130 01e6 3A       		.uleb128 0x3a
 2131 01e7 0B       		.uleb128 0xb
 2132 01e8 3B       		.uleb128 0x3b
 2133 01e9 05       		.uleb128 0x5
 2134 01ea 49       		.uleb128 0x49
 2135 01eb 13       		.uleb128 0x13
 2136 01ec 3F       		.uleb128 0x3f
 2137 01ed 19       		.uleb128 0x19
 2138 01ee 3C       		.uleb128 0x3c
 2139 01ef 19       		.uleb128 0x19
 2140 01f0 00       		.byte	0
 2141 01f1 00       		.byte	0
 2142 01f2 24       		.uleb128 0x24
 2143 01f3 35       		.uleb128 0x35
 2144 01f4 00       		.byte	0
 2145 01f5 49       		.uleb128 0x49
 2146 01f6 13       		.uleb128 0x13
 2147 01f7 00       		.byte	0
ARM GAS  C:\Users\DAVIDW~1\AppData\Local\Temp\cc8ZNA3W.s 			page 70


 2148 01f8 00       		.byte	0
 2149 01f9 00       		.byte	0
 2150              		.section	.debug_loc,"",%progbits
 2151              	.Ldebug_loc0:
 2152              	.LLST0:
 2153 0000 00000000 		.4byte	.LVL0
 2154 0004 02000000 		.4byte	.LVL1
 2155 0008 0100     		.2byte	0x1
 2156 000a 51       		.byte	0x51
 2157 000b 02000000 		.4byte	.LVL1
 2158 000f 26000000 		.4byte	.LFE134
 2159 0013 0400     		.2byte	0x4
 2160 0015 F3       		.byte	0xf3
 2161 0016 01       		.uleb128 0x1
 2162 0017 51       		.byte	0x51
 2163 0018 9F       		.byte	0x9f
 2164 0019 00000000 		.4byte	0
 2165 001d 00000000 		.4byte	0
 2166              	.LLST1:
 2167 0021 00000000 		.4byte	.LVL0
 2168 0025 20000000 		.4byte	.LVL2
 2169 0029 0100     		.2byte	0x1
 2170 002b 52       		.byte	0x52
 2171 002c 20000000 		.4byte	.LVL2
 2172 0030 26000000 		.4byte	.LFE134
 2173 0034 0400     		.2byte	0x4
 2174 0036 F3       		.byte	0xf3
 2175 0037 01       		.uleb128 0x1
 2176 0038 52       		.byte	0x52
 2177 0039 9F       		.byte	0x9f
 2178 003a 00000000 		.4byte	0
 2179 003e 00000000 		.4byte	0
 2180              	.LLST2:
 2181 0042 00000000 		.4byte	.LVL3
 2182 0046 0A000000 		.4byte	.LVL5
 2183 004a 0100     		.2byte	0x1
 2184 004c 50       		.byte	0x50
 2185 004d 0A000000 		.4byte	.LVL5
 2186 0051 1E000000 		.4byte	.LFE133
 2187 0055 0100     		.2byte	0x1
 2188 0057 56       		.byte	0x56
 2189 0058 00000000 		.4byte	0
 2190 005c 00000000 		.4byte	0
 2191              	.LLST3:
 2192 0060 00000000 		.4byte	.LVL3
 2193 0064 0A000000 		.4byte	.LVL5
 2194 0068 0100     		.2byte	0x1
 2195 006a 51       		.byte	0x51
 2196 006b 0A000000 		.4byte	.LVL5
 2197 006f 1E000000 		.4byte	.LFE133
 2198 0073 0100     		.2byte	0x1
 2199 0075 55       		.byte	0x55
 2200 0076 00000000 		.4byte	0
 2201 007a 00000000 		.4byte	0
 2202              	.LLST4:
 2203 007e 06000000 		.4byte	.LVL4
 2204 0082 0A000000 		.4byte	.LVL5
ARM GAS  C:\Users\DAVIDW~1\AppData\Local\Temp\cc8ZNA3W.s 			page 71


 2205 0086 0200     		.2byte	0x2
 2206 0088 31       		.byte	0x31
 2207 0089 9F       		.byte	0x9f
 2208 008a 0A000000 		.4byte	.LVL5
 2209 008e 16000000 		.4byte	.LVL7
 2210 0092 0100     		.2byte	0x1
 2211 0094 54       		.byte	0x54
 2212 0095 16000000 		.4byte	.LVL7
 2213 0099 18000000 		.4byte	.LVL8
 2214 009d 0100     		.2byte	0x1
 2215 009f 53       		.byte	0x53
 2216 00a0 18000000 		.4byte	.LVL8
 2217 00a4 1E000000 		.4byte	.LFE133
 2218 00a8 0100     		.2byte	0x1
 2219 00aa 54       		.byte	0x54
 2220 00ab 00000000 		.4byte	0
 2221 00af 00000000 		.4byte	0
 2222              	.LLST5:
 2223 00b3 00000000 		.4byte	.LVL9
 2224 00b7 1C000000 		.4byte	.LVL14
 2225 00bb 0100     		.2byte	0x1
 2226 00bd 50       		.byte	0x50
 2227 00be 1C000000 		.4byte	.LVL14
 2228 00c2 28000000 		.4byte	.LFE132
 2229 00c6 0400     		.2byte	0x4
 2230 00c8 F3       		.byte	0xf3
 2231 00c9 01       		.uleb128 0x1
 2232 00ca 50       		.byte	0x50
 2233 00cb 9F       		.byte	0x9f
 2234 00cc 00000000 		.4byte	0
 2235 00d0 00000000 		.4byte	0
 2236              	.LLST6:
 2237 00d4 00000000 		.4byte	.LVL9
 2238 00d8 14000000 		.4byte	.LVL12
 2239 00dc 0100     		.2byte	0x1
 2240 00de 51       		.byte	0x51
 2241 00df 14000000 		.4byte	.LVL12
 2242 00e3 28000000 		.4byte	.LFE132
 2243 00e7 0400     		.2byte	0x4
 2244 00e9 F3       		.byte	0xf3
 2245 00ea 01       		.uleb128 0x1
 2246 00eb 51       		.byte	0x51
 2247 00ec 9F       		.byte	0x9f
 2248 00ed 00000000 		.4byte	0
 2249 00f1 00000000 		.4byte	0
 2250              	.LLST7:
 2251 00f5 02000000 		.4byte	.LVL10
 2252 00f9 10000000 		.4byte	.LVL11
 2253 00fd 0200     		.2byte	0x2
 2254 00ff 30       		.byte	0x30
 2255 0100 9F       		.byte	0x9f
 2256 0101 10000000 		.4byte	.LVL11
 2257 0105 16000000 		.4byte	.LVL13
 2258 0109 0100     		.2byte	0x1
 2259 010b 56       		.byte	0x56
 2260 010c 16000000 		.4byte	.LVL13
 2261 0110 1C000000 		.4byte	.LVL14
ARM GAS  C:\Users\DAVIDW~1\AppData\Local\Temp\cc8ZNA3W.s 			page 72


 2262 0114 0600     		.2byte	0x6
 2263 0116 76       		.byte	0x76
 2264 0117 00       		.sleb128 0
 2265 0118 74       		.byte	0x74
 2266 0119 00       		.sleb128 0
 2267 011a 22       		.byte	0x22
 2268 011b 9F       		.byte	0x9f
 2269 011c 1C000000 		.4byte	.LVL14
 2270 0120 1F000000 		.4byte	.LVL15-1
 2271 0124 0100     		.2byte	0x1
 2272 0126 50       		.byte	0x50
 2273 0127 1F000000 		.4byte	.LVL15-1
 2274 012b 22000000 		.4byte	.LVL16
 2275 012f 0600     		.2byte	0x6
 2276 0131 76       		.byte	0x76
 2277 0132 00       		.sleb128 0
 2278 0133 74       		.byte	0x74
 2279 0134 00       		.sleb128 0
 2280 0135 22       		.byte	0x22
 2281 0136 9F       		.byte	0x9f
 2282 0137 00000000 		.4byte	0
 2283 013b 00000000 		.4byte	0
 2284              	.LLST8:
 2285 013f 00000000 		.4byte	.LVL17
 2286 0143 12000000 		.4byte	.LVL20
 2287 0147 0100     		.2byte	0x1
 2288 0149 50       		.byte	0x50
 2289 014a 12000000 		.4byte	.LVL20
 2290 014e 24000000 		.4byte	.LVL24
 2291 0152 0100     		.2byte	0x1
 2292 0154 55       		.byte	0x55
 2293 0155 24000000 		.4byte	.LVL24
 2294 0159 28000000 		.4byte	.LFE131
 2295 015d 0400     		.2byte	0x4
 2296 015f F3       		.byte	0xf3
 2297 0160 01       		.uleb128 0x1
 2298 0161 50       		.byte	0x50
 2299 0162 9F       		.byte	0x9f
 2300 0163 00000000 		.4byte	0
 2301 0167 00000000 		.4byte	0
 2302              	.LLST9:
 2303 016b 10000000 		.4byte	.LVL19
 2304 016f 12000000 		.4byte	.LVL20
 2305 0173 0100     		.2byte	0x1
 2306 0175 53       		.byte	0x53
 2307 0176 12000000 		.4byte	.LVL20
 2308 017a 1C000000 		.4byte	.LVL22
 2309 017e 0100     		.2byte	0x1
 2310 0180 54       		.byte	0x54
 2311 0181 1C000000 		.4byte	.LVL22
 2312 0185 1E000000 		.4byte	.LVL23
 2313 0189 0100     		.2byte	0x1
 2314 018b 53       		.byte	0x53
 2315 018c 1E000000 		.4byte	.LVL23
 2316 0190 24000000 		.4byte	.LVL24
 2317 0194 0100     		.2byte	0x1
 2318 0196 54       		.byte	0x54
ARM GAS  C:\Users\DAVIDW~1\AppData\Local\Temp\cc8ZNA3W.s 			page 73


 2319 0197 00000000 		.4byte	0
 2320 019b 00000000 		.4byte	0
 2321              	.LLST10:
 2322 019f 10000000 		.4byte	.LVL19
 2323 01a3 12000000 		.4byte	.LVL20
 2324 01a7 0100     		.2byte	0x1
 2325 01a9 53       		.byte	0x53
 2326 01aa 00000000 		.4byte	0
 2327 01ae 00000000 		.4byte	0
 2328              	.LLST11:
 2329 01b2 02000000 		.4byte	.LVL25
 2330 01b6 06000000 		.4byte	.LVL26
 2331 01ba 0200     		.2byte	0x2
 2332 01bc 33       		.byte	0x33
 2333 01bd 9F       		.byte	0x9f
 2334 01be 06000000 		.4byte	.LVL26
 2335 01c2 0E000000 		.4byte	.LVL28
 2336 01c6 0100     		.2byte	0x1
 2337 01c8 54       		.byte	0x54
 2338 01c9 0E000000 		.4byte	.LVL28
 2339 01cd 10000000 		.4byte	.LVL29
 2340 01d1 0100     		.2byte	0x1
 2341 01d3 53       		.byte	0x53
 2342 01d4 10000000 		.4byte	.LVL29
 2343 01d8 16000000 		.4byte	.LFE130
 2344 01dc 0100     		.2byte	0x1
 2345 01de 54       		.byte	0x54
 2346 01df 00000000 		.4byte	0
 2347 01e3 00000000 		.4byte	0
 2348              	.LLST12:
 2349 01e7 00000000 		.4byte	.LVL30
 2350 01eb 08000000 		.4byte	.LVL32
 2351 01ef 0100     		.2byte	0x1
 2352 01f1 50       		.byte	0x50
 2353 01f2 08000000 		.4byte	.LVL32
 2354 01f6 14000000 		.4byte	.LFE135
 2355 01fa 0400     		.2byte	0x4
 2356 01fc F3       		.byte	0xf3
 2357 01fd 01       		.uleb128 0x1
 2358 01fe 50       		.byte	0x50
 2359 01ff 9F       		.byte	0x9f
 2360 0200 00000000 		.4byte	0
 2361 0204 00000000 		.4byte	0
 2362              	.LLST13:
 2363 0208 00000000 		.4byte	.LVL30
 2364 020c 0C000000 		.4byte	.LVL33
 2365 0210 0100     		.2byte	0x1
 2366 0212 51       		.byte	0x51
 2367 0213 0C000000 		.4byte	.LVL33
 2368 0217 14000000 		.4byte	.LFE135
 2369 021b 0400     		.2byte	0x4
 2370 021d F3       		.byte	0xf3
 2371 021e 01       		.uleb128 0x1
 2372 021f 51       		.byte	0x51
 2373 0220 9F       		.byte	0x9f
 2374 0221 00000000 		.4byte	0
 2375 0225 00000000 		.4byte	0
ARM GAS  C:\Users\DAVIDW~1\AppData\Local\Temp\cc8ZNA3W.s 			page 74


 2376              	.LLST14:
 2377 0229 00000000 		.4byte	.LVL30
 2378 022d 04000000 		.4byte	.LVL31
 2379 0231 0100     		.2byte	0x1
 2380 0233 53       		.byte	0x53
 2381 0234 04000000 		.4byte	.LVL31
 2382 0238 14000000 		.4byte	.LFE135
 2383 023c 0400     		.2byte	0x4
 2384 023e F3       		.byte	0xf3
 2385 023f 01       		.uleb128 0x1
 2386 0240 53       		.byte	0x53
 2387 0241 9F       		.byte	0x9f
 2388 0242 00000000 		.4byte	0
 2389 0246 00000000 		.4byte	0
 2390              	.LLST15:
 2391 024a 10000000 		.4byte	.LVL34
 2392 024e 12000000 		.4byte	.LVL35
 2393 0252 0500     		.2byte	0x5
 2394 0254 70       		.byte	0x70
 2395 0255 00       		.sleb128 0
 2396 0256 38       		.byte	0x38
 2397 0257 25       		.byte	0x25
 2398 0258 9F       		.byte	0x9f
 2399 0259 12000000 		.4byte	.LVL35
 2400 025d 14000000 		.4byte	.LFE135
 2401 0261 0100     		.2byte	0x1
 2402 0263 50       		.byte	0x50
 2403 0264 00000000 		.4byte	0
 2404 0268 00000000 		.4byte	0
 2405              	.LLST16:
 2406 026c 00000000 		.4byte	.LVL36
 2407 0270 0E000000 		.4byte	.LVL38
 2408 0274 0100     		.2byte	0x1
 2409 0276 50       		.byte	0x50
 2410 0277 0E000000 		.4byte	.LVL38
 2411 027b C4000000 		.4byte	.LFE129
 2412 027f 0100     		.2byte	0x1
 2413 0281 56       		.byte	0x56
 2414 0282 00000000 		.4byte	0
 2415 0286 00000000 		.4byte	0
 2416              	.LLST17:
 2417 028a 00000000 		.4byte	.LVL36
 2418 028e 0E000000 		.4byte	.LVL38
 2419 0292 0100     		.2byte	0x1
 2420 0294 51       		.byte	0x51
 2421 0295 0E000000 		.4byte	.LVL38
 2422 0299 C4000000 		.4byte	.LFE129
 2423 029d 0100     		.2byte	0x1
 2424 029f 55       		.byte	0x55
 2425 02a0 00000000 		.4byte	0
 2426 02a4 00000000 		.4byte	0
 2427              	.LLST18:
 2428 02a8 00000000 		.4byte	.LVL36
 2429 02ac 0E000000 		.4byte	.LVL38
 2430 02b0 0100     		.2byte	0x1
 2431 02b2 52       		.byte	0x52
 2432 02b3 0E000000 		.4byte	.LVL38
ARM GAS  C:\Users\DAVIDW~1\AppData\Local\Temp\cc8ZNA3W.s 			page 75


 2433 02b7 C4000000 		.4byte	.LFE129
 2434 02bb 0100     		.2byte	0x1
 2435 02bd 57       		.byte	0x57
 2436 02be 00000000 		.4byte	0
 2437 02c2 00000000 		.4byte	0
 2438              	.LLST19:
 2439 02c6 1E000000 		.4byte	.LVL39
 2440 02ca 2C000000 		.4byte	.LVL40
 2441 02ce 0200     		.2byte	0x2
 2442 02d0 31       		.byte	0x31
 2443 02d1 9F       		.byte	0x9f
 2444 02d2 2E000000 		.4byte	.LVL41
 2445 02d6 30000000 		.4byte	.LVL42
 2446 02da 0200     		.2byte	0x2
 2447 02dc 30       		.byte	0x30
 2448 02dd 9F       		.byte	0x9f
 2449 02de 30000000 		.4byte	.LVL42
 2450 02e2 40000000 		.4byte	.LVL44
 2451 02e6 0100     		.2byte	0x1
 2452 02e8 52       		.byte	0x52
 2453 02e9 58000000 		.4byte	.LVL46
 2454 02ed 7C000000 		.4byte	.LVL50
 2455 02f1 0100     		.2byte	0x1
 2456 02f3 52       		.byte	0x52
 2457 02f4 94000000 		.4byte	.LVL53
 2458 02f8 A0000000 		.4byte	.LVL55
 2459 02fc 0100     		.2byte	0x1
 2460 02fe 52       		.byte	0x52
 2461 02ff 00000000 		.4byte	0
 2462 0303 00000000 		.4byte	0
 2463              	.LLST20:
 2464 0307 1E000000 		.4byte	.LVL39
 2465 030b 2C000000 		.4byte	.LVL40
 2466 030f 0100     		.2byte	0x1
 2467 0311 53       		.byte	0x53
 2468 0312 2E000000 		.4byte	.LVL41
 2469 0316 3C000000 		.4byte	.LVL43
 2470 031a 0100     		.2byte	0x1
 2471 031c 53       		.byte	0x53
 2472 031d 58000000 		.4byte	.LVL46
 2473 0321 6C000000 		.4byte	.LVL47
 2474 0325 0100     		.2byte	0x1
 2475 0327 53       		.byte	0x53
 2476 0328 00000000 		.4byte	0
 2477 032c 00000000 		.4byte	0
 2478              	.LLST21:
 2479 0330 0A000000 		.4byte	.LVL37
 2480 0334 0E000000 		.4byte	.LVL38
 2481 0338 0200     		.2byte	0x2
 2482 033a 31       		.byte	0x31
 2483 033b 9F       		.byte	0x9f
 2484 033c 0E000000 		.4byte	.LVL38
 2485 0340 B8000000 		.4byte	.LVL59
 2486 0344 0100     		.2byte	0x1
 2487 0346 54       		.byte	0x54
 2488 0347 B8000000 		.4byte	.LVL59
 2489 034b BA000000 		.4byte	.LVL60
ARM GAS  C:\Users\DAVIDW~1\AppData\Local\Temp\cc8ZNA3W.s 			page 76


 2490 034f 0100     		.2byte	0x1
 2491 0351 53       		.byte	0x53
 2492 0352 BA000000 		.4byte	.LVL60
 2493 0356 C4000000 		.4byte	.LFE129
 2494 035a 0100     		.2byte	0x1
 2495 035c 54       		.byte	0x54
 2496 035d 00000000 		.4byte	0
 2497 0361 00000000 		.4byte	0
 2498              	.LLST22:
 2499 0365 78000000 		.4byte	.LVL49
 2500 0369 94000000 		.4byte	.LVL53
 2501 036d 0200     		.2byte	0x2
 2502 036f 31       		.byte	0x31
 2503 0370 9F       		.byte	0x9f
 2504 0371 9C000000 		.4byte	.LVL54
 2505 0375 B6000000 		.4byte	.LVL58
 2506 0379 0200     		.2byte	0x2
 2507 037b 31       		.byte	0x31
 2508 037c 9F       		.byte	0x9f
 2509 037d 00000000 		.4byte	0
 2510 0381 00000000 		.4byte	0
 2511              	.LLST23:
 2512 0385 70000000 		.4byte	.LVL48
 2513 0389 78000000 		.4byte	.LVL49
 2514 038d 0500     		.2byte	0x5
 2515 038f 71       		.byte	0x71
 2516 0390 00       		.sleb128 0
 2517 0391 38       		.byte	0x38
 2518 0392 24       		.byte	0x24
 2519 0393 9F       		.byte	0x9f
 2520 0394 78000000 		.4byte	.LVL49
 2521 0398 80000000 		.4byte	.LVL51
 2522 039c 0800     		.2byte	0x8
 2523 039e 71       		.byte	0x71
 2524 039f 00       		.sleb128 0
 2525 03a0 38       		.byte	0x38
 2526 03a1 24       		.byte	0x24
 2527 03a2 7E       		.byte	0x7e
 2528 03a3 00       		.sleb128 0
 2529 03a4 21       		.byte	0x21
 2530 03a5 9F       		.byte	0x9f
 2531 03a6 80000000 		.4byte	.LVL51
 2532 03aa 83000000 		.4byte	.LVL52-1
 2533 03ae 0100     		.2byte	0x1
 2534 03b0 51       		.byte	0x51
 2535 03b1 84000000 		.4byte	.LVL52
 2536 03b5 94000000 		.4byte	.LVL53
 2537 03b9 0100     		.2byte	0x1
 2538 03bb 50       		.byte	0x50
 2539 03bc 94000000 		.4byte	.LVL53
 2540 03c0 9C000000 		.4byte	.LVL54
 2541 03c4 0500     		.2byte	0x5
 2542 03c6 71       		.byte	0x71
 2543 03c7 00       		.sleb128 0
 2544 03c8 38       		.byte	0x38
 2545 03c9 24       		.byte	0x24
 2546 03ca 9F       		.byte	0x9f
ARM GAS  C:\Users\DAVIDW~1\AppData\Local\Temp\cc8ZNA3W.s 			page 77


 2547 03cb 9C000000 		.4byte	.LVL54
 2548 03cf A4000000 		.4byte	.LVL56
 2549 03d3 0800     		.2byte	0x8
 2550 03d5 71       		.byte	0x71
 2551 03d6 00       		.sleb128 0
 2552 03d7 38       		.byte	0x38
 2553 03d8 24       		.byte	0x24
 2554 03d9 7E       		.byte	0x7e
 2555 03da 00       		.sleb128 0
 2556 03db 21       		.byte	0x21
 2557 03dc 9F       		.byte	0x9f
 2558 03dd A4000000 		.4byte	.LVL56
 2559 03e1 A7000000 		.4byte	.LVL57-1
 2560 03e5 0100     		.2byte	0x1
 2561 03e7 51       		.byte	0x51
 2562 03e8 A8000000 		.4byte	.LVL57
 2563 03ec B6000000 		.4byte	.LVL58
 2564 03f0 0100     		.2byte	0x1
 2565 03f2 50       		.byte	0x50
 2566 03f3 00000000 		.4byte	0
 2567 03f7 00000000 		.4byte	0
 2568              	.LLST24:
 2569 03fb 00000000 		.4byte	.LVL61
 2570 03ff 1A000000 		.4byte	.LVL68
 2571 0403 0100     		.2byte	0x1
 2572 0405 50       		.byte	0x50
 2573 0406 1A000000 		.4byte	.LVL68
 2574 040a 24000000 		.4byte	.LFE128
 2575 040e 0400     		.2byte	0x4
 2576 0410 F3       		.byte	0xf3
 2577 0411 01       		.uleb128 0x1
 2578 0412 50       		.byte	0x50
 2579 0413 9F       		.byte	0x9f
 2580 0414 00000000 		.4byte	0
 2581 0418 00000000 		.4byte	0
 2582              	.LLST25:
 2583 041c 00000000 		.4byte	.LVL61
 2584 0420 12000000 		.4byte	.LVL65
 2585 0424 0100     		.2byte	0x1
 2586 0426 51       		.byte	0x51
 2587 0427 12000000 		.4byte	.LVL65
 2588 042b 24000000 		.4byte	.LFE128
 2589 042f 0400     		.2byte	0x4
 2590 0431 F3       		.byte	0xf3
 2591 0432 01       		.uleb128 0x1
 2592 0433 51       		.byte	0x51
 2593 0434 9F       		.byte	0x9f
 2594 0435 00000000 		.4byte	0
 2595 0439 00000000 		.4byte	0
 2596              	.LLST26:
 2597 043d 02000000 		.4byte	.LVL62
 2598 0441 1E000000 		.4byte	.LVL69
 2599 0445 0200     		.2byte	0x2
 2600 0447 30       		.byte	0x30
 2601 0448 9F       		.byte	0x9f
 2602 0449 1E000000 		.4byte	.LVL69
 2603 044d 24000000 		.4byte	.LFE128
ARM GAS  C:\Users\DAVIDW~1\AppData\Local\Temp\cc8ZNA3W.s 			page 78


 2604 0451 0100     		.2byte	0x1
 2605 0453 50       		.byte	0x50
 2606 0454 00000000 		.4byte	0
 2607 0458 00000000 		.4byte	0
 2608              	.LLST27:
 2609 045c 02000000 		.4byte	.LVL62
 2610 0460 0E000000 		.4byte	.LVL64
 2611 0464 0200     		.2byte	0x2
 2612 0466 30       		.byte	0x30
 2613 0467 9F       		.byte	0x9f
 2614 0468 0E000000 		.4byte	.LVL64
 2615 046c 14000000 		.4byte	.LVL66
 2616 0470 0100     		.2byte	0x1
 2617 0472 54       		.byte	0x54
 2618 0473 14000000 		.4byte	.LVL66
 2619 0477 18000000 		.4byte	.LVL67
 2620 047b 0600     		.2byte	0x6
 2621 047d 74       		.byte	0x74
 2622 047e 00       		.sleb128 0
 2623 047f 75       		.byte	0x75
 2624 0480 00       		.sleb128 0
 2625 0481 22       		.byte	0x22
 2626 0482 9F       		.byte	0x9f
 2627 0483 18000000 		.4byte	.LVL67
 2628 0487 1D000000 		.4byte	.LVL69-1
 2629 048b 0100     		.2byte	0x1
 2630 048d 51       		.byte	0x51
 2631 048e 1D000000 		.4byte	.LVL69-1
 2632 0492 20000000 		.4byte	.LVL70
 2633 0496 0600     		.2byte	0x6
 2634 0498 74       		.byte	0x74
 2635 0499 00       		.sleb128 0
 2636 049a 75       		.byte	0x75
 2637 049b 00       		.sleb128 0
 2638 049c 22       		.byte	0x22
 2639 049d 9F       		.byte	0x9f
 2640 049e 00000000 		.4byte	0
 2641 04a2 00000000 		.4byte	0
 2642              	.LLST28:
 2643 04a6 0C000000 		.4byte	.LVL63
 2644 04aa 1D000000 		.4byte	.LVL69-1
 2645 04ae 0200     		.2byte	0x2
 2646 04b0 73       		.byte	0x73
 2647 04b1 04       		.sleb128 4
 2648 04b2 1D000000 		.4byte	.LVL69-1
 2649 04b6 20000000 		.4byte	.LVL70
 2650 04ba 1000     		.2byte	0x10
 2651 04bc F3       		.byte	0xf3
 2652 04bd 01       		.uleb128 0x1
 2653 04be 50       		.byte	0x50
 2654 04bf 33       		.byte	0x33
 2655 04c0 24       		.byte	0x24
 2656 04c1 F3       		.byte	0xf3
 2657 04c2 01       		.uleb128 0x1
 2658 04c3 50       		.byte	0x50
 2659 04c4 1C       		.byte	0x1c
 2660 04c5 32       		.byte	0x32
ARM GAS  C:\Users\DAVIDW~1\AppData\Local\Temp\cc8ZNA3W.s 			page 79


 2661 04c6 24       		.byte	0x24
 2662 04c7 76       		.byte	0x76
 2663 04c8 00       		.sleb128 0
 2664 04c9 22       		.byte	0x22
 2665 04ca 23       		.byte	0x23
 2666 04cb 04       		.uleb128 0x4
 2667 04cc 00000000 		.4byte	0
 2668 04d0 00000000 		.4byte	0
 2669              	.LLST29:
 2670 04d4 00000000 		.4byte	.LVL71
 2671 04d8 14000000 		.4byte	.LVL74
 2672 04dc 0100     		.2byte	0x1
 2673 04de 50       		.byte	0x50
 2674 04df 14000000 		.4byte	.LVL74
 2675 04e3 2A000000 		.4byte	.LVL79
 2676 04e7 0100     		.2byte	0x1
 2677 04e9 56       		.byte	0x56
 2678 04ea 2A000000 		.4byte	.LVL79
 2679 04ee 30000000 		.4byte	.LFE127
 2680 04f2 0400     		.2byte	0x4
 2681 04f4 F3       		.byte	0xf3
 2682 04f5 01       		.uleb128 0x1
 2683 04f6 50       		.byte	0x50
 2684 04f7 9F       		.byte	0x9f
 2685 04f8 00000000 		.4byte	0
 2686 04fc 00000000 		.4byte	0
 2687              	.LLST30:
 2688 0500 10000000 		.4byte	.LVL73
 2689 0504 14000000 		.4byte	.LVL74
 2690 0508 0100     		.2byte	0x1
 2691 050a 53       		.byte	0x53
 2692 050b 14000000 		.4byte	.LVL74
 2693 050f 20000000 		.4byte	.LVL77
 2694 0513 0100     		.2byte	0x1
 2695 0515 54       		.byte	0x54
 2696 0516 20000000 		.4byte	.LVL77
 2697 051a 22000000 		.4byte	.LVL78
 2698 051e 0100     		.2byte	0x1
 2699 0520 53       		.byte	0x53
 2700 0521 22000000 		.4byte	.LVL78
 2701 0525 2A000000 		.4byte	.LVL79
 2702 0529 0100     		.2byte	0x1
 2703 052b 54       		.byte	0x54
 2704 052c 2A000000 		.4byte	.LVL79
 2705 0530 30000000 		.4byte	.LFE127
 2706 0534 0300     		.2byte	0x3
 2707 0536 73       		.byte	0x73
 2708 0537 7F       		.sleb128 -1
 2709 0538 9F       		.byte	0x9f
 2710 0539 00000000 		.4byte	0
 2711 053d 00000000 		.4byte	0
 2712              	.LLST31:
 2713 0541 10000000 		.4byte	.LVL73
 2714 0545 14000000 		.4byte	.LVL74
 2715 0549 0100     		.2byte	0x1
 2716 054b 53       		.byte	0x53
 2717 054c 00000000 		.4byte	0
ARM GAS  C:\Users\DAVIDW~1\AppData\Local\Temp\cc8ZNA3W.s 			page 80


 2718 0550 00000000 		.4byte	0
 2719              	.LLST32:
 2720 0554 04000000 		.4byte	.LVL72
 2721 0558 14000000 		.4byte	.LVL74
 2722 055c 0200     		.2byte	0x2
 2723 055e 30       		.byte	0x30
 2724 055f 9F       		.byte	0x9f
 2725 0560 14000000 		.4byte	.LVL74
 2726 0564 2A000000 		.4byte	.LVL79
 2727 0568 0100     		.2byte	0x1
 2728 056a 55       		.byte	0x55
 2729 056b 2A000000 		.4byte	.LVL79
 2730 056f 30000000 		.4byte	.LFE127
 2731 0573 0100     		.2byte	0x1
 2732 0575 50       		.byte	0x50
 2733 0576 00000000 		.4byte	0
 2734 057a 00000000 		.4byte	0
 2735              	.LLST33:
 2736 057e 02000000 		.4byte	.LVL80
 2737 0582 08000000 		.4byte	.LVL81
 2738 0586 0200     		.2byte	0x2
 2739 0588 33       		.byte	0x33
 2740 0589 9F       		.byte	0x9f
 2741 058a 08000000 		.4byte	.LVL81
 2742 058e 12000000 		.4byte	.LVL84
 2743 0592 0100     		.2byte	0x1
 2744 0594 54       		.byte	0x54
 2745 0595 12000000 		.4byte	.LVL84
 2746 0599 14000000 		.4byte	.LVL85
 2747 059d 0100     		.2byte	0x1
 2748 059f 53       		.byte	0x53
 2749 05a0 14000000 		.4byte	.LVL85
 2750 05a4 1C000000 		.4byte	.LFE126
 2751 05a8 0100     		.2byte	0x1
 2752 05aa 54       		.byte	0x54
 2753 05ab 00000000 		.4byte	0
 2754 05af 00000000 		.4byte	0
 2755              	.LLST34:
 2756 05b3 02000000 		.4byte	.LVL80
 2757 05b7 08000000 		.4byte	.LVL81
 2758 05bb 0200     		.2byte	0x2
 2759 05bd 30       		.byte	0x30
 2760 05be 9F       		.byte	0x9f
 2761 05bf 08000000 		.4byte	.LVL81
 2762 05c3 1C000000 		.4byte	.LFE126
 2763 05c7 0100     		.2byte	0x1
 2764 05c9 55       		.byte	0x55
 2765 05ca 00000000 		.4byte	0
 2766 05ce 00000000 		.4byte	0
 2767              		.section	.debug_aranges,"",%progbits
 2768 0000 6C000000 		.4byte	0x6c
 2769 0004 0200     		.2byte	0x2
 2770 0006 00000000 		.4byte	.Ldebug_info0
 2771 000a 04       		.byte	0x4
 2772 000b 00       		.byte	0
 2773 000c 0000     		.2byte	0
 2774 000e 0000     		.2byte	0
ARM GAS  C:\Users\DAVIDW~1\AppData\Local\Temp\cc8ZNA3W.s 			page 81


 2775 0010 00000000 		.4byte	.LFB125
 2776 0014 02000000 		.4byte	.LFE125-.LFB125
 2777 0018 00000000 		.4byte	.LFB134
 2778 001c 26000000 		.4byte	.LFE134-.LFB134
 2779 0020 00000000 		.4byte	.LFB133
 2780 0024 1E000000 		.4byte	.LFE133-.LFB133
 2781 0028 00000000 		.4byte	.LFB132
 2782 002c 28000000 		.4byte	.LFE132-.LFB132
 2783 0030 00000000 		.4byte	.LFB131
 2784 0034 28000000 		.4byte	.LFE131-.LFB131
 2785 0038 00000000 		.4byte	.LFB130
 2786 003c 16000000 		.4byte	.LFE130-.LFB130
 2787 0040 00000000 		.4byte	.LFB135
 2788 0044 14000000 		.4byte	.LFE135-.LFB135
 2789 0048 00000000 		.4byte	.LFB129
 2790 004c C4000000 		.4byte	.LFE129-.LFB129
 2791 0050 00000000 		.4byte	.LFB128
 2792 0054 24000000 		.4byte	.LFE128-.LFB128
 2793 0058 00000000 		.4byte	.LFB127
 2794 005c 30000000 		.4byte	.LFE127-.LFB127
 2795 0060 00000000 		.4byte	.LFB126
 2796 0064 1C000000 		.4byte	.LFE126-.LFB126
 2797 0068 00000000 		.4byte	0
 2798 006c 00000000 		.4byte	0
 2799              		.section	.debug_ranges,"",%progbits
 2800              	.Ldebug_ranges0:
 2801 0000 00000000 		.4byte	.LFB125
 2802 0004 02000000 		.4byte	.LFE125
 2803 0008 00000000 		.4byte	.LFB134
 2804 000c 26000000 		.4byte	.LFE134
 2805 0010 00000000 		.4byte	.LFB133
 2806 0014 1E000000 		.4byte	.LFE133
 2807 0018 00000000 		.4byte	.LFB132
 2808 001c 28000000 		.4byte	.LFE132
 2809 0020 00000000 		.4byte	.LFB131
 2810 0024 28000000 		.4byte	.LFE131
 2811 0028 00000000 		.4byte	.LFB130
 2812 002c 16000000 		.4byte	.LFE130
 2813 0030 00000000 		.4byte	.LFB135
 2814 0034 14000000 		.4byte	.LFE135
 2815 0038 00000000 		.4byte	.LFB129
 2816 003c C4000000 		.4byte	.LFE129
 2817 0040 00000000 		.4byte	.LFB128
 2818 0044 24000000 		.4byte	.LFE128
 2819 0048 00000000 		.4byte	.LFB127
 2820 004c 30000000 		.4byte	.LFE127
 2821 0050 00000000 		.4byte	.LFB126
 2822 0054 1C000000 		.4byte	.LFE126
 2823 0058 00000000 		.4byte	0
 2824 005c 00000000 		.4byte	0
 2825              		.section	.debug_line,"",%progbits
 2826              	.Ldebug_line0:
 2827 0000 1F030000 		.section	.debug_str,"MS",%progbits,1
 2827      0200DF01 
 2827      00000201 
 2827      FB0E0D00 
 2827      01010101 
ARM GAS  C:\Users\DAVIDW~1\AppData\Local\Temp\cc8ZNA3W.s 			page 82


 2828              	.LASF63:
 2829 0000 43617053 		.ascii	"CapSense_FLASH_STRUCT\000"
 2829      656E7365 
 2829      5F464C41 
 2829      53485F53 
 2829      54525543 
 2830              	.LASF27:
 2831 0016 43617053 		.ascii	"CapSense_LOW_BSLN_RST_TYPE\000"
 2831      656E7365 
 2831      5F4C4F57 
 2831      5F42534C 
 2831      4E5F5253 
 2832              	.LASF87:
 2833 0031 72657375 		.ascii	"result\000"
 2833      6C7400
 2834              	.LASF46:
 2835 0038 62736C6E 		.ascii	"bsln\000"
 2835      00
 2836              	.LASF71:
 2837 003d 73656E73 		.ascii	"sensorId\000"
 2837      6F724964 
 2837      00
 2838              	.LASF91:
 2839 0046 62736C6E 		.ascii	"bslnStatus\000"
 2839      53746174 
 2839      757300
 2840              	.LASF41:
 2841 0051 6C6F7742 		.ascii	"lowBslnRst\000"
 2841      736C6E52 
 2841      737400
 2842              	.LASF48:
 2843 005c 64696666 		.ascii	"diff\000"
 2843      00
 2844              	.LASF58:
 2845 0061 746F7461 		.ascii	"totalNumSns\000"
 2845      6C4E756D 
 2845      536E7300 
 2846              	.LASF76:
 2847 006d 43617053 		.ascii	"CapSense_InitializeAllBaselines\000"
 2847      656E7365 
 2847      5F496E69 
 2847      7469616C 
 2847      697A6541 
 2848              	.LASF42:
 2849 008d 69646163 		.ascii	"idacMod\000"
 2849      4D6F6400 
 2850              	.LASF5:
 2851 0095 73686F72 		.ascii	"short int\000"
 2851      7420696E 
 2851      7400
 2852              	.LASF77:
 2853 009f 696E7075 		.ascii	"input\000"
 2853      7400
 2854              	.LASF32:
 2855 00a5 43617053 		.ascii	"CapSense_WD_TOUCHPAD_E\000"
 2855      656E7365 
 2855      5F57445F 
ARM GAS  C:\Users\DAVIDW~1\AppData\Local\Temp\cc8ZNA3W.s 			page 83


 2855      544F5543 
 2855      48504144 
 2856              	.LASF61:
 2857 00bc 43617053 		.ascii	"CapSense_FLASH_WD_STRUCT\000"
 2857      656E7365 
 2857      5F464C41 
 2857      53485F57 
 2857      445F5354 
 2858              	.LASF85:
 2859 00d5 64696666 		.ascii	"difference\000"
 2859      6572656E 
 2859      636500
 2860              	.LASF38:
 2861 00e0 6E4E6F69 		.ascii	"nNoiseTh\000"
 2861      73655468 
 2861      00
 2862              	.LASF65:
 2863 00e9 77645479 		.ascii	"wdType\000"
 2863      706500
 2864              	.LASF95:
 2865 00f0 474E5520 		.ascii	"GNU C11 5.4.1 20160609 (release) [ARM/embedded-5-br"
 2865      43313120 
 2865      352E342E 
 2865      31203230 
 2865      31363036 
 2866 0123 616E6368 		.ascii	"anch revision 237715] -mcpu=cortex-m4 -mfloat-abi=s"
 2866      20726576 
 2866      6973696F 
 2866      6E203233 
 2866      37373135 
 2867 0156 6F667466 		.ascii	"oftfp -mfpu=fpv4-sp-d16 -mthumb -g -Og -ffunction-s"
 2867      70202D6D 
 2867      6670753D 
 2867      66707634 
 2867      2D73702D 
 2868 0189 65637469 		.ascii	"ections -ffat-lto-objects\000"
 2868      6F6E7320 
 2868      2D666661 
 2868      742D6C74 
 2868      6F2D6F62 
 2869              	.LASF80:
 2870 01a3 66696C74 		.ascii	"filteredOutput\000"
 2870      65726564 
 2870      4F757470 
 2870      757400
 2871              	.LASF11:
 2872 01b2 5F5F7569 		.ascii	"__uint32_t\000"
 2872      6E743332 
 2872      5F7400
 2873              	.LASF88:
 2874 01bd 68697374 		.ascii	"history\000"
 2874      6F727900 
 2875              	.LASF44:
 2876 01c5 736E7343 		.ascii	"snsClkSource\000"
 2876      6C6B536F 
 2876      75726365 
 2876      00
ARM GAS  C:\Users\DAVIDW~1\AppData\Local\Temp\cc8ZNA3W.s 			page 84


 2877              	.LASF7:
 2878 01d2 5F5F7569 		.ascii	"__uint16_t\000"
 2878      6E743136 
 2878      5F7400
 2879              	.LASF28:
 2880 01dd 43617053 		.ascii	"CapSense_WD_BUTTON_E\000"
 2880      656E7365 
 2880      5F57445F 
 2880      42555454 
 2880      4F4E5F45 
 2881              	.LASF37:
 2882 01f2 6E6F6973 		.ascii	"noiseTh\000"
 2882      65546800 
 2883              	.LASF24:
 2884 01fa 75696E74 		.ascii	"uint16\000"
 2884      313600
 2885              	.LASF89:
 2886 0201 43617053 		.ascii	"CapSense_UpdateSensorBaseline\000"
 2886      656E7365 
 2886      5F557064 
 2886      61746553 
 2886      656E736F 
 2887              	.LASF56:
 2888 021f 70747232 		.ascii	"ptr2DebounceArr\000"
 2888      4465626F 
 2888      756E6365 
 2888      41727200 
 2889              	.LASF14:
 2890 022f 75696E74 		.ascii	"uint8_t\000"
 2890      385F7400 
 2891              	.LASF23:
 2892 0237 75696E74 		.ascii	"uint8\000"
 2892      3800
 2893              	.LASF83:
 2894 023d 70747257 		.ascii	"ptrWidgetRam\000"
 2894      69646765 
 2894      7452616D 
 2894      00
 2895              	.LASF43:
 2896 024a 736E7343 		.ascii	"snsClk\000"
 2896      6C6B00
 2897              	.LASF67:
 2898 0251 43617053 		.ascii	"CapSense_FtInitializeBaselineChannel\000"
 2898      656E7365 
 2898      5F467449 
 2898      6E697469 
 2898      616C697A 
 2899              	.LASF81:
 2900 0276 43617053 		.ascii	"CapSense_FtIIR1stOrder\000"
 2900      656E7365 
 2900      5F467449 
 2900      49523173 
 2900      744F7264 
 2901              	.LASF33:
 2902 028d 43617053 		.ascii	"CapSense_WD_PROXIMITY_E\000"
 2902      656E7365 
 2902      5F57445F 
ARM GAS  C:\Users\DAVIDW~1\AppData\Local\Temp\cc8ZNA3W.s 			page 85


 2902      50524F58 
 2902      494D4954 
 2903              	.LASF20:
 2904 02a5 666C6F61 		.ascii	"float\000"
 2904      7400
 2905              	.LASF1:
 2906 02ab 6C6F6E67 		.ascii	"long long int\000"
 2906      206C6F6E 
 2906      6720696E 
 2906      7400
 2907              	.LASF19:
 2908 02b9 63686172 		.ascii	"char\000"
 2908      00
 2909              	.LASF10:
 2910 02be 6C6F6E67 		.ascii	"long int\000"
 2910      20696E74 
 2910      00
 2911              	.LASF79:
 2912 02c7 73686966 		.ascii	"shift\000"
 2912      7400
 2913              	.LASF59:
 2914 02cd 77646774 		.ascii	"wdgtType\000"
 2914      54797065 
 2914      00
 2915              	.LASF96:
 2916 02d6 47656E65 		.ascii	"Generated_Source\\PSoC6\\CapSense_Filter.c\000"
 2916      72617465 
 2916      645F536F 
 2916      75726365 
 2916      5C50536F 
 2917              	.LASF18:
 2918 02ff 73697A65 		.ascii	"sizetype\000"
 2918      74797065 
 2918      00
 2919              	.LASF26:
 2920 0308 43617053 		.ascii	"CapSense_THRESHOLD_TYPE\000"
 2920      656E7365 
 2920      5F544852 
 2920      4553484F 
 2920      4C445F54 
 2921              	.LASF49:
 2922 0320 6E656742 		.ascii	"negBslnRstCnt\000"
 2922      736C6E52 
 2922      7374436E 
 2922      7400
 2923              	.LASF6:
 2924 032e 5F5F7569 		.ascii	"__uint8_t\000"
 2924      6E74385F 
 2924      7400
 2925              	.LASF40:
 2926 0338 6F6E4465 		.ascii	"onDebounce\000"
 2926      626F756E 
 2926      636500
 2927              	.LASF36:
 2928 0343 66696E67 		.ascii	"fingerTh\000"
 2928      65725468 
 2928      00
ARM GAS  C:\Users\DAVIDW~1\AppData\Local\Temp\cc8ZNA3W.s 			page 86


 2929              	.LASF60:
 2930 034c 6E756D43 		.ascii	"numCols\000"
 2930      6F6C7300 
 2931              	.LASF69:
 2932 0354 43617053 		.ascii	"CapSense_InitializeSensorBaseline\000"
 2932      656E7365 
 2932      5F496E69 
 2932      7469616C 
 2932      697A6553 
 2933              	.LASF39:
 2934 0376 68797374 		.ascii	"hysteresis\000"
 2934      65726573 
 2934      697300
 2935              	.LASF97:
 2936 0381 433A5C55 		.ascii	"C:\\Users\\David w zhang\\Desktop\\Project\\SmartLo"
 2936      73657273 
 2936      5C446176 
 2936      69642077 
 2936      207A6861 
 2937 03af 636B5F4C 		.ascii	"ck_Lumi\\SmartLock.cydsn\000"
 2937      756D695C 
 2937      536D6172 
 2937      744C6F63 
 2937      6B2E6379 
 2938              	.LASF2:
 2939 03c7 6C6F6E67 		.ascii	"long double\000"
 2939      20646F75 
 2939      626C6500 
 2940              	.LASF4:
 2941 03d3 756E7369 		.ascii	"unsigned char\000"
 2941      676E6564 
 2941      20636861 
 2941      7200
 2942              	.LASF75:
 2943 03e1 70747257 		.ascii	"ptrWidget\000"
 2943      69646765 
 2943      7400
 2944              	.LASF22:
 2945 03eb 63795F73 		.ascii	"cy_status\000"
 2945      74617475 
 2945      7300
 2946              	.LASF3:
 2947 03f5 7369676E 		.ascii	"signed char\000"
 2947      65642063 
 2947      68617200 
 2948              	.LASF16:
 2949 0401 696E7433 		.ascii	"int32_t\000"
 2949      325F7400 
 2950              	.LASF13:
 2951 0409 6C6F6E67 		.ascii	"long long unsigned int\000"
 2951      206C6F6E 
 2951      6720756E 
 2951      7369676E 
 2951      65642069 
 2952              	.LASF17:
 2953 0420 75696E74 		.ascii	"uint32_t\000"
 2953      33325F74 
ARM GAS  C:\Users\DAVIDW~1\AppData\Local\Temp\cc8ZNA3W.s 			page 87


 2953      00
 2954              	.LASF57:
 2955 0429 73746174 		.ascii	"staticConfig\000"
 2955      6963436F 
 2955      6E666967 
 2955      00
 2956              	.LASF0:
 2957 0436 756E7369 		.ascii	"unsigned int\000"
 2957      676E6564 
 2957      20696E74 
 2957      00
 2958              	.LASF15:
 2959 0443 75696E74 		.ascii	"uint16_t\000"
 2959      31365F74 
 2959      00
 2960              	.LASF72:
 2961 044c 66726571 		.ascii	"freqChannel\000"
 2961      4368616E 
 2961      6E656C00 
 2962              	.LASF51:
 2963 0458 43617053 		.ascii	"CapSense_RAM_SNS_STRUCT\000"
 2963      656E7365 
 2963      5F52414D 
 2963      5F534E53 
 2963      5F535452 
 2964              	.LASF90:
 2965 0470 43617053 		.ascii	"CapSense_UpdateWidgetBaseline\000"
 2965      656E7365 
 2965      5F557064 
 2965      61746557 
 2965      69646765 
 2966              	.LASF29:
 2967 048e 43617053 		.ascii	"CapSense_WD_LINEAR_SLIDER_E\000"
 2967      656E7365 
 2967      5F57445F 
 2967      4C494E45 
 2967      41525F53 
 2968              	.LASF8:
 2969 04aa 73686F72 		.ascii	"short unsigned int\000"
 2969      7420756E 
 2969      7369676E 
 2969      65642069 
 2969      6E7400
 2970              	.LASF92:
 2971 04bd 43617053 		.ascii	"CapSense_UpdateAllBaselines\000"
 2971      656E7365 
 2971      5F557064 
 2971      61746541 
 2971      6C6C4261 
 2972              	.LASF98:
 2973 04d9 43617053 		.ascii	"CapSense_FtInitialize\000"
 2973      656E7365 
 2973      5F467449 
 2973      6E697469 
 2973      616C697A 
 2974              	.LASF50:
 2975 04ef 69646163 		.ascii	"idacComp\000"
ARM GAS  C:\Users\DAVIDW~1\AppData\Local\Temp\cc8ZNA3W.s 			page 88


 2975      436F6D70 
 2975      00
 2976              	.LASF68:
 2977 04f8 43617053 		.ascii	"CapSense_FtInitializeBaseline\000"
 2977      656E7365 
 2977      5F467449 
 2977      6E697469 
 2977      616C697A 
 2978              	.LASF35:
 2979 0516 7265736F 		.ascii	"resolution\000"
 2979      6C757469 
 2979      6F6E00
 2980              	.LASF9:
 2981 0521 5F5F696E 		.ascii	"__int32_t\000"
 2981      7433325F 
 2981      7400
 2982              	.LASF66:
 2983 052b 6368616E 		.ascii	"channel\000"
 2983      6E656C00 
 2984              	.LASF82:
 2985 0533 43617053 		.ascii	"CapSense_FtUpdateBaseline\000"
 2985      656E7365 
 2985      5F467455 
 2985      70646174 
 2985      65426173 
 2986              	.LASF74:
 2987 054d 73656E73 		.ascii	"sensorsNumber\000"
 2987      6F72734E 
 2987      756D6265 
 2987      7200
 2988              	.LASF53:
 2989 055b 70747232 		.ascii	"ptr2WdgtRam\000"
 2989      57646774 
 2989      52616D00 
 2990              	.LASF86:
 2991 0567 62617365 		.ascii	"baselineCoeff\000"
 2991      6C696E65 
 2991      436F6566 
 2991      6600
 2992              	.LASF30:
 2993 0575 43617053 		.ascii	"CapSense_WD_RADIAL_SLIDER_E\000"
 2993      656E7365 
 2993      5F57445F 
 2993      52414449 
 2993      414C5F53 
 2994              	.LASF70:
 2995 0591 77696467 		.ascii	"widgetId\000"
 2995      65744964 
 2995      00
 2996              	.LASF25:
 2997 059a 75696E74 		.ascii	"uint32\000"
 2997      333200
 2998              	.LASF12:
 2999 05a1 6C6F6E67 		.ascii	"long unsigned int\000"
 2999      20756E73 
 2999      69676E65 
 2999      6420696E 
ARM GAS  C:\Users\DAVIDW~1\AppData\Local\Temp\cc8ZNA3W.s 			page 89


 2999      7400
 3000              	.LASF84:
 3001 05b3 7369676E 		.ascii	"sign\000"
 3001      00
 3002              	.LASF21:
 3003 05b8 646F7562 		.ascii	"double\000"
 3003      6C6500
 3004              	.LASF47:
 3005 05bf 62736C6E 		.ascii	"bslnExt\000"
 3005      45787400 
 3006              	.LASF34:
 3007 05c7 43617053 		.ascii	"CapSense_WD_TYPE_ENUM\000"
 3007      656E7365 
 3007      5F57445F 
 3007      54595045 
 3007      5F454E55 
 3008              	.LASF78:
 3009 05dd 70726576 		.ascii	"prevOutput\000"
 3009      4F757470 
 3009      757400
 3010              	.LASF31:
 3011 05e8 43617053 		.ascii	"CapSense_WD_MATRIX_BUTTON_E\000"
 3011      656E7365 
 3011      5F57445F 
 3011      4D415452 
 3011      49585F42 
 3012              	.LASF54:
 3013 0604 70747232 		.ascii	"ptr2SnsRam\000"
 3013      536E7352 
 3013      616D00
 3014              	.LASF73:
 3015 060f 43617053 		.ascii	"CapSense_InitializeWidgetBaseline\000"
 3015      656E7365 
 3015      5F496E69 
 3015      7469616C 
 3015      697A6557 
 3016              	.LASF55:
 3017 0631 70747232 		.ascii	"ptr2FltrHistory\000"
 3017      466C7472 
 3017      48697374 
 3017      6F727900 
 3018              	.LASF62:
 3019 0641 77646774 		.ascii	"wdgtArray\000"
 3019      41727261 
 3019      7900
 3020              	.LASF94:
 3021 064b 43617053 		.ascii	"CapSense_dsFlash\000"
 3021      656E7365 
 3021      5F647346 
 3021      6C617368 
 3021      00
 3022              	.LASF45:
 3023 065c 43617053 		.ascii	"CapSense_RAM_WD_BASE_STRUCT\000"
 3023      656E7365 
 3023      5F52414D 
 3023      5F57445F 
 3023      42415345 
ARM GAS  C:\Users\DAVIDW~1\AppData\Local\Temp\cc8ZNA3W.s 			page 90


 3024              	.LASF93:
 3025 0678 49544D5F 		.ascii	"ITM_RxBuffer\000"
 3025      52784275 
 3025      66666572 
 3025      00
 3026              	.LASF52:
 3027 0685 70747232 		.ascii	"ptr2SnsFlash\000"
 3027      536E7346 
 3027      6C617368 
 3027      00
 3028              	.LASF64:
 3029 0692 70747253 		.ascii	"ptrSensor\000"
 3029      656E736F 
 3029      7200
 3030              		.ident	"GCC: (GNU Tools for ARM Embedded Processors) 5.4.1 20160609 (release) [ARM/embedded-5-bran
