ARM GAS  C:\Users\DAVIDW~1\AppData\Local\Temp\ccImPayJ.s 			page 1


   1              		.syntax unified
   2              		.cpu cortex-m0plus
   3              		.fpu softvfp
   4              		.eabi_attribute 20, 1
   5              		.eabi_attribute 21, 1
   6              		.eabi_attribute 23, 3
   7              		.eabi_attribute 24, 1
   8              		.eabi_attribute 25, 1
   9              		.eabi_attribute 26, 1
  10              		.eabi_attribute 30, 1
  11              		.eabi_attribute 34, 0
  12              		.eabi_attribute 18, 4
  13              		.thumb
  14              		.syntax unified
  15              		.file	"SCB.c"
  16              		.text
  17              	.Ltext0:
  18              		.cfi_sections	.debug_frame
  19              		.section	.text.SCB_Interrupt,"ax",%progbits
  20              		.align	2
  21              		.code	16
  22              		.thumb_func
  23              		.type	SCB_Interrupt, %function
  24              	SCB_Interrupt:
  25              	.LFB130:
  26              		.file 1 "Generated_Source\\PSoC6\\SCB.h"
   1:Generated_Source\PSoC6/SCB.h **** /***************************************************************************//**
   2:Generated_Source\PSoC6/SCB.h **** * \file SCB.c
   3:Generated_Source\PSoC6/SCB.h **** * \version 2.0
   4:Generated_Source\PSoC6/SCB.h **** *
   5:Generated_Source\PSoC6/SCB.h **** *  This file provides constants and parameter values for the EZI2C component.
   6:Generated_Source\PSoC6/SCB.h **** *
   7:Generated_Source\PSoC6/SCB.h **** ********************************************************************************
   8:Generated_Source\PSoC6/SCB.h **** * \copyright
   9:Generated_Source\PSoC6/SCB.h **** * Copyright 2016-2017, Cypress Semiconductor Corporation. All rights reserved.
  10:Generated_Source\PSoC6/SCB.h **** * You may use this file only in accordance with the license, terms, conditions,
  11:Generated_Source\PSoC6/SCB.h **** * disclaimers, and limitations in the end user license agreement accompanying
  12:Generated_Source\PSoC6/SCB.h **** * the software package with which this file was provided.
  13:Generated_Source\PSoC6/SCB.h **** *******************************************************************************/
  14:Generated_Source\PSoC6/SCB.h **** 
  15:Generated_Source\PSoC6/SCB.h **** #if !defined(SCB_CY_SCB_EZI2C_PDL_H)
  16:Generated_Source\PSoC6/SCB.h **** #define SCB_CY_SCB_EZI2C_PDL_H
  17:Generated_Source\PSoC6/SCB.h **** 
  18:Generated_Source\PSoC6/SCB.h **** #include "cyfitter.h"
  19:Generated_Source\PSoC6/SCB.h **** #include "scb/cy_scb_ezi2c.h"
  20:Generated_Source\PSoC6/SCB.h **** 
  21:Generated_Source\PSoC6/SCB.h **** #if defined(__cplusplus)
  22:Generated_Source\PSoC6/SCB.h **** extern "C" {
  23:Generated_Source\PSoC6/SCB.h **** #endif
  24:Generated_Source\PSoC6/SCB.h **** 
  25:Generated_Source\PSoC6/SCB.h **** /***************************************
  26:Generated_Source\PSoC6/SCB.h **** *   Initial Parameter Constants
  27:Generated_Source\PSoC6/SCB.h **** ****************************************/
  28:Generated_Source\PSoC6/SCB.h **** 
  29:Generated_Source\PSoC6/SCB.h **** #define SCB_ENABLE_SECOND_ADDR  (0U)
  30:Generated_Source\PSoC6/SCB.h **** 
  31:Generated_Source\PSoC6/SCB.h **** 
ARM GAS  C:\Users\DAVIDW~1\AppData\Local\Temp\ccImPayJ.s 			page 2


  32:Generated_Source\PSoC6/SCB.h **** /***************************************
  33:Generated_Source\PSoC6/SCB.h **** *        Function Prototypes
  34:Generated_Source\PSoC6/SCB.h **** ***************************************/
  35:Generated_Source\PSoC6/SCB.h **** /**
  36:Generated_Source\PSoC6/SCB.h **** * \addtogroup group_general
  37:Generated_Source\PSoC6/SCB.h **** * @{
  38:Generated_Source\PSoC6/SCB.h **** */
  39:Generated_Source\PSoC6/SCB.h **** /* Component only APIs. */
  40:Generated_Source\PSoC6/SCB.h **** void SCB_Start(void);
  41:Generated_Source\PSoC6/SCB.h **** 
  42:Generated_Source\PSoC6/SCB.h **** /* Basic functions. */
  43:Generated_Source\PSoC6/SCB.h **** __STATIC_INLINE cy_en_scb_ezi2c_status_t SCB_Init(cy_stc_scb_ezi2c_config_t const *config);
  44:Generated_Source\PSoC6/SCB.h **** __STATIC_INLINE void SCB_DeInit (void);
  45:Generated_Source\PSoC6/SCB.h **** __STATIC_INLINE void SCB_Enable (void);
  46:Generated_Source\PSoC6/SCB.h **** __STATIC_INLINE void SCB_Disable(void);
  47:Generated_Source\PSoC6/SCB.h **** 
  48:Generated_Source\PSoC6/SCB.h **** __STATIC_INLINE uint32_t SCB_GetActivity(void);
  49:Generated_Source\PSoC6/SCB.h **** 
  50:Generated_Source\PSoC6/SCB.h **** /* Configuration functions for address 1 */
  51:Generated_Source\PSoC6/SCB.h **** __STATIC_INLINE void     SCB_SetAddress1(uint8_t addr);
  52:Generated_Source\PSoC6/SCB.h **** __STATIC_INLINE uint32_t SCB_GetAddress1(void);
  53:Generated_Source\PSoC6/SCB.h **** __STATIC_INLINE void     SCB_SetBuffer1(uint8_t* buffer, uint32_t size, uint32_t rwBoundary);
  54:Generated_Source\PSoC6/SCB.h **** 
  55:Generated_Source\PSoC6/SCB.h **** #if (SCB_ENABLE_SECOND_ADDR)
  56:Generated_Source\PSoC6/SCB.h **** /* Configuration functions for address 2 */
  57:Generated_Source\PSoC6/SCB.h **** __STATIC_INLINE void     SCB_SetAddress2(uint8_t addr);
  58:Generated_Source\PSoC6/SCB.h **** __STATIC_INLINE uint32_t SCB_GetAddress2(void);
  59:Generated_Source\PSoC6/SCB.h **** __STATIC_INLINE void     SCB_SetBuffer2(uint8_t* buffer, uint32_t size, uint32_t rwBoundary);
  60:Generated_Source\PSoC6/SCB.h **** #endif /* (SCB_ENABLE_SECOND_ADDR) */
  61:Generated_Source\PSoC6/SCB.h **** 
  62:Generated_Source\PSoC6/SCB.h **** __STATIC_INLINE void SCB_Interrupt(void);
  63:Generated_Source\PSoC6/SCB.h **** /** @} group_general */
  64:Generated_Source\PSoC6/SCB.h **** 
  65:Generated_Source\PSoC6/SCB.h **** 
  66:Generated_Source\PSoC6/SCB.h **** /***************************************
  67:Generated_Source\PSoC6/SCB.h **** *    Variables with External Linkage
  68:Generated_Source\PSoC6/SCB.h **** ***************************************/
  69:Generated_Source\PSoC6/SCB.h **** /**
  70:Generated_Source\PSoC6/SCB.h **** * \addtogroup group_globals
  71:Generated_Source\PSoC6/SCB.h **** * @{
  72:Generated_Source\PSoC6/SCB.h **** */
  73:Generated_Source\PSoC6/SCB.h **** extern uint8_t SCB_initVar;
  74:Generated_Source\PSoC6/SCB.h **** extern cy_stc_scb_ezi2c_config_t const SCB_config;
  75:Generated_Source\PSoC6/SCB.h **** extern cy_stc_scb_ezi2c_context_t SCB_context;
  76:Generated_Source\PSoC6/SCB.h **** /** @} group_globals */
  77:Generated_Source\PSoC6/SCB.h **** 
  78:Generated_Source\PSoC6/SCB.h **** 
  79:Generated_Source\PSoC6/SCB.h **** /***************************************
  80:Generated_Source\PSoC6/SCB.h **** *         Preprocessor Macros
  81:Generated_Source\PSoC6/SCB.h **** ***************************************/
  82:Generated_Source\PSoC6/SCB.h **** /**
  83:Generated_Source\PSoC6/SCB.h **** * \addtogroup group_macros
  84:Generated_Source\PSoC6/SCB.h **** * @{
  85:Generated_Source\PSoC6/SCB.h **** */
  86:Generated_Source\PSoC6/SCB.h **** /** The pointer to the base address of the SCB instance */
  87:Generated_Source\PSoC6/SCB.h **** #define SCB_HW     ((CySCB_Type *) SCB_SCB__HW)
  88:Generated_Source\PSoC6/SCB.h **** /** @} group_macros */
ARM GAS  C:\Users\DAVIDW~1\AppData\Local\Temp\ccImPayJ.s 			page 3


  89:Generated_Source\PSoC6/SCB.h **** 
  90:Generated_Source\PSoC6/SCB.h **** 
  91:Generated_Source\PSoC6/SCB.h **** /***************************************
  92:Generated_Source\PSoC6/SCB.h **** *    In-line Function Implementation
  93:Generated_Source\PSoC6/SCB.h **** ***************************************/
  94:Generated_Source\PSoC6/SCB.h **** 
  95:Generated_Source\PSoC6/SCB.h **** /*******************************************************************************
  96:Generated_Source\PSoC6/SCB.h **** * Function Name: SCB_Init
  97:Generated_Source\PSoC6/SCB.h **** ****************************************************************************//**
  98:Generated_Source\PSoC6/SCB.h **** *
  99:Generated_Source\PSoC6/SCB.h **** * Invokes the Cy_SCB_EZI2C_Init() PDL driver function.
 100:Generated_Source\PSoC6/SCB.h **** *
 101:Generated_Source\PSoC6/SCB.h **** *******************************************************************************/
 102:Generated_Source\PSoC6/SCB.h **** __STATIC_INLINE cy_en_scb_ezi2c_status_t SCB_Init(cy_stc_scb_ezi2c_config_t const *config)
 103:Generated_Source\PSoC6/SCB.h **** {
 104:Generated_Source\PSoC6/SCB.h ****     return Cy_SCB_EZI2C_Init(SCB_HW, config, &SCB_context);
 105:Generated_Source\PSoC6/SCB.h **** }
 106:Generated_Source\PSoC6/SCB.h **** 
 107:Generated_Source\PSoC6/SCB.h **** 
 108:Generated_Source\PSoC6/SCB.h **** /*******************************************************************************
 109:Generated_Source\PSoC6/SCB.h **** *  Function Name: SCB_DeInit
 110:Generated_Source\PSoC6/SCB.h **** ****************************************************************************//**
 111:Generated_Source\PSoC6/SCB.h **** *
 112:Generated_Source\PSoC6/SCB.h **** * Invokes the Cy_SCB_EZI2C_DeInit() PDL driver function.
 113:Generated_Source\PSoC6/SCB.h **** *
 114:Generated_Source\PSoC6/SCB.h **** *******************************************************************************/
 115:Generated_Source\PSoC6/SCB.h **** __STATIC_INLINE void SCB_DeInit(void)
 116:Generated_Source\PSoC6/SCB.h **** {
 117:Generated_Source\PSoC6/SCB.h ****     Cy_SCB_EZI2C_DeInit(SCB_HW);
 118:Generated_Source\PSoC6/SCB.h **** }
 119:Generated_Source\PSoC6/SCB.h **** 
 120:Generated_Source\PSoC6/SCB.h **** 
 121:Generated_Source\PSoC6/SCB.h **** /*******************************************************************************
 122:Generated_Source\PSoC6/SCB.h **** * Function Name: SCB_Enable
 123:Generated_Source\PSoC6/SCB.h **** ****************************************************************************//**
 124:Generated_Source\PSoC6/SCB.h **** *
 125:Generated_Source\PSoC6/SCB.h **** * Invokes the Cy_SCB_EZI2C_Enable() PDL driver function.
 126:Generated_Source\PSoC6/SCB.h **** *
 127:Generated_Source\PSoC6/SCB.h **** *******************************************************************************/
 128:Generated_Source\PSoC6/SCB.h **** __STATIC_INLINE void SCB_Enable(void)
 129:Generated_Source\PSoC6/SCB.h **** {
 130:Generated_Source\PSoC6/SCB.h ****     Cy_SCB_EZI2C_Enable(SCB_HW);
 131:Generated_Source\PSoC6/SCB.h **** }
 132:Generated_Source\PSoC6/SCB.h **** 
 133:Generated_Source\PSoC6/SCB.h **** 
 134:Generated_Source\PSoC6/SCB.h **** /*******************************************************************************
 135:Generated_Source\PSoC6/SCB.h **** * Function Name: SCB_Disable
 136:Generated_Source\PSoC6/SCB.h **** ****************************************************************************//**
 137:Generated_Source\PSoC6/SCB.h **** *
 138:Generated_Source\PSoC6/SCB.h **** * Invokes the Cy_SCB_EZI2C_Disable() PDL driver function.
 139:Generated_Source\PSoC6/SCB.h **** *
 140:Generated_Source\PSoC6/SCB.h **** *******************************************************************************/
 141:Generated_Source\PSoC6/SCB.h **** __STATIC_INLINE void SCB_Disable(void)
 142:Generated_Source\PSoC6/SCB.h **** {
 143:Generated_Source\PSoC6/SCB.h ****     Cy_SCB_EZI2C_Disable(SCB_HW, &SCB_context);
 144:Generated_Source\PSoC6/SCB.h **** }
 145:Generated_Source\PSoC6/SCB.h **** 
ARM GAS  C:\Users\DAVIDW~1\AppData\Local\Temp\ccImPayJ.s 			page 4


 146:Generated_Source\PSoC6/SCB.h **** 
 147:Generated_Source\PSoC6/SCB.h **** /*******************************************************************************
 148:Generated_Source\PSoC6/SCB.h **** * Function Name: SCB_GetActivity
 149:Generated_Source\PSoC6/SCB.h **** ****************************************************************************//**
 150:Generated_Source\PSoC6/SCB.h **** *
 151:Generated_Source\PSoC6/SCB.h **** * Invokes the Cy_SCB_EZI2C_GetActivity() PDL driver function.
 152:Generated_Source\PSoC6/SCB.h **** *
 153:Generated_Source\PSoC6/SCB.h **** *******************************************************************************/
 154:Generated_Source\PSoC6/SCB.h **** __STATIC_INLINE uint32_t SCB_GetActivity(void)
 155:Generated_Source\PSoC6/SCB.h **** {
 156:Generated_Source\PSoC6/SCB.h ****     return Cy_SCB_EZI2C_GetActivity(SCB_HW, &SCB_context);
 157:Generated_Source\PSoC6/SCB.h **** }
 158:Generated_Source\PSoC6/SCB.h **** 
 159:Generated_Source\PSoC6/SCB.h **** 
 160:Generated_Source\PSoC6/SCB.h **** /*******************************************************************************
 161:Generated_Source\PSoC6/SCB.h **** * Function Name: SCB_SetAddress1
 162:Generated_Source\PSoC6/SCB.h **** ****************************************************************************//**
 163:Generated_Source\PSoC6/SCB.h **** *
 164:Generated_Source\PSoC6/SCB.h **** * Invokes the Cy_SCB_EZI2C_SetAddress1() PDL driver function.
 165:Generated_Source\PSoC6/SCB.h **** *
 166:Generated_Source\PSoC6/SCB.h **** *******************************************************************************/
 167:Generated_Source\PSoC6/SCB.h **** __STATIC_INLINE void SCB_SetAddress1(uint8_t addr)
 168:Generated_Source\PSoC6/SCB.h **** {
 169:Generated_Source\PSoC6/SCB.h ****     Cy_SCB_EZI2C_SetAddress1(SCB_HW, addr, &SCB_context);
 170:Generated_Source\PSoC6/SCB.h **** }
 171:Generated_Source\PSoC6/SCB.h **** 
 172:Generated_Source\PSoC6/SCB.h **** 
 173:Generated_Source\PSoC6/SCB.h **** /*******************************************************************************
 174:Generated_Source\PSoC6/SCB.h **** * Function Name: SCB_GetAddress1
 175:Generated_Source\PSoC6/SCB.h **** ****************************************************************************//**
 176:Generated_Source\PSoC6/SCB.h **** *
 177:Generated_Source\PSoC6/SCB.h **** * Invokes the Cy_SCB_EZI2C_GetAddress1() PDL driver function.
 178:Generated_Source\PSoC6/SCB.h **** *
 179:Generated_Source\PSoC6/SCB.h **** *******************************************************************************/
 180:Generated_Source\PSoC6/SCB.h **** __STATIC_INLINE uint32_t SCB_GetAddress1(void)
 181:Generated_Source\PSoC6/SCB.h **** {
 182:Generated_Source\PSoC6/SCB.h ****     return Cy_SCB_EZI2C_GetAddress1(SCB_HW, &SCB_context);
 183:Generated_Source\PSoC6/SCB.h **** }
 184:Generated_Source\PSoC6/SCB.h **** 
 185:Generated_Source\PSoC6/SCB.h **** 
 186:Generated_Source\PSoC6/SCB.h **** /*******************************************************************************
 187:Generated_Source\PSoC6/SCB.h **** * Function Name: SCB_SetBuffer1
 188:Generated_Source\PSoC6/SCB.h **** ****************************************************************************//**
 189:Generated_Source\PSoC6/SCB.h **** *
 190:Generated_Source\PSoC6/SCB.h **** * Invokes the Cy_SCB_EZI2C_SetBuffer1() PDL driver function.
 191:Generated_Source\PSoC6/SCB.h **** *
 192:Generated_Source\PSoC6/SCB.h **** *******************************************************************************/
 193:Generated_Source\PSoC6/SCB.h **** __STATIC_INLINE void SCB_SetBuffer1(uint8_t* buffer, uint32_t size, uint32_t rwBoundary)
 194:Generated_Source\PSoC6/SCB.h **** {
 195:Generated_Source\PSoC6/SCB.h ****     Cy_SCB_EZI2C_SetBuffer1(SCB_HW, buffer, size, rwBoundary, &SCB_context);
 196:Generated_Source\PSoC6/SCB.h **** }
 197:Generated_Source\PSoC6/SCB.h **** 
 198:Generated_Source\PSoC6/SCB.h **** 
 199:Generated_Source\PSoC6/SCB.h **** #if (SCB_ENABLE_SECOND_ADDR)
 200:Generated_Source\PSoC6/SCB.h **** /*******************************************************************************
 201:Generated_Source\PSoC6/SCB.h **** * Function Name: SCB_SetAddress2
 202:Generated_Source\PSoC6/SCB.h **** ****************************************************************************//**
ARM GAS  C:\Users\DAVIDW~1\AppData\Local\Temp\ccImPayJ.s 			page 5


 203:Generated_Source\PSoC6/SCB.h **** *
 204:Generated_Source\PSoC6/SCB.h **** * Invokes the Cy_SCB_EZI2C_SlaveGetAddress2() PDL driver function.
 205:Generated_Source\PSoC6/SCB.h **** *
 206:Generated_Source\PSoC6/SCB.h **** *******************************************************************************/
 207:Generated_Source\PSoC6/SCB.h **** __STATIC_INLINE void SCB_SetAddress2(uint8_t addr)
 208:Generated_Source\PSoC6/SCB.h **** {
 209:Generated_Source\PSoC6/SCB.h ****     Cy_SCB_EZI2C_SetAddress2(SCB_HW, addr, &SCB_context);
 210:Generated_Source\PSoC6/SCB.h **** }
 211:Generated_Source\PSoC6/SCB.h **** 
 212:Generated_Source\PSoC6/SCB.h **** 
 213:Generated_Source\PSoC6/SCB.h **** /*******************************************************************************
 214:Generated_Source\PSoC6/SCB.h **** * Function Name: SCB_GetAddress2
 215:Generated_Source\PSoC6/SCB.h **** ****************************************************************************//**
 216:Generated_Source\PSoC6/SCB.h **** *
 217:Generated_Source\PSoC6/SCB.h **** * Invokes the Cy_SCB_EZI2C_SlaveGetAddress2() PDL driver function.
 218:Generated_Source\PSoC6/SCB.h **** *
 219:Generated_Source\PSoC6/SCB.h **** *******************************************************************************/
 220:Generated_Source\PSoC6/SCB.h **** __STATIC_INLINE uint32_t SCB_GetAddress2(void)
 221:Generated_Source\PSoC6/SCB.h **** {
 222:Generated_Source\PSoC6/SCB.h ****     return Cy_SCB_EZI2C_GetAddress2(SCB_HW, &SCB_context);
 223:Generated_Source\PSoC6/SCB.h **** }
 224:Generated_Source\PSoC6/SCB.h **** 
 225:Generated_Source\PSoC6/SCB.h **** 
 226:Generated_Source\PSoC6/SCB.h **** /*******************************************************************************
 227:Generated_Source\PSoC6/SCB.h **** * Function Name: SCB_SetBuffer2
 228:Generated_Source\PSoC6/SCB.h **** ****************************************************************************//**
 229:Generated_Source\PSoC6/SCB.h **** *
 230:Generated_Source\PSoC6/SCB.h **** * Invokes the Cy_SCB_EZI2C_SetBuffer2() PDL driver function.
 231:Generated_Source\PSoC6/SCB.h **** *
 232:Generated_Source\PSoC6/SCB.h **** *******************************************************************************/
 233:Generated_Source\PSoC6/SCB.h **** __STATIC_INLINE void SCB_SetBuffer2(uint8_t* buffer, uint32_t size, uint32_t rwBoundary)
 234:Generated_Source\PSoC6/SCB.h **** {
 235:Generated_Source\PSoC6/SCB.h ****     Cy_SCB_EZI2C_SetBuffer2(SCB_HW, buffer, size, rwBoundary, &SCB_context);
 236:Generated_Source\PSoC6/SCB.h **** }
 237:Generated_Source\PSoC6/SCB.h **** #endif /* (SCB_ENABLE_SECOND_ADDR) */
 238:Generated_Source\PSoC6/SCB.h **** 
 239:Generated_Source\PSoC6/SCB.h **** 
 240:Generated_Source\PSoC6/SCB.h **** /*******************************************************************************
 241:Generated_Source\PSoC6/SCB.h **** * Function Name: SCB_Interrupt
 242:Generated_Source\PSoC6/SCB.h **** ****************************************************************************//**
 243:Generated_Source\PSoC6/SCB.h **** *
 244:Generated_Source\PSoC6/SCB.h **** * Invokes the Cy_SCB_EZI2C_Interrupt() PDL driver function.
 245:Generated_Source\PSoC6/SCB.h **** *
 246:Generated_Source\PSoC6/SCB.h **** *******************************************************************************/
 247:Generated_Source\PSoC6/SCB.h **** __STATIC_INLINE void SCB_Interrupt(void)
 248:Generated_Source\PSoC6/SCB.h **** {
  27              		.loc 1 248 0
  28              		.cfi_startproc
  29              		@ args = 0, pretend = 0, frame = 0
  30              		@ frame_needed = 0, uses_anonymous_args = 0
  31 0000 10B5     		push	{r4, lr}
  32              		.cfi_def_cfa_offset 8
  33              		.cfi_offset 4, -8
  34              		.cfi_offset 14, -4
 249:Generated_Source\PSoC6/SCB.h ****     Cy_SCB_EZI2C_Interrupt(SCB_HW, &SCB_context);
  35              		.loc 1 249 0
  36 0002 0249     		ldr	r1, .L2
ARM GAS  C:\Users\DAVIDW~1\AppData\Local\Temp\ccImPayJ.s 			page 6


  37 0004 0248     		ldr	r0, .L2+4
  38 0006 FFF7FEFF 		bl	Cy_SCB_EZI2C_Interrupt
  39              	.LVL0:
 250:Generated_Source\PSoC6/SCB.h **** }
  40              		.loc 1 250 0
  41              		@ sp needed
  42 000a 10BD     		pop	{r4, pc}
  43              	.L3:
  44              		.align	2
  45              	.L2:
  46 000c 00000000 		.word	SCB_context
  47 0010 00006440 		.word	1080295424
  48              		.cfi_endproc
  49              	.LFE130:
  50              		.size	SCB_Interrupt, .-SCB_Interrupt
  51              		.section	.text.SCB_Start,"ax",%progbits
  52              		.align	2
  53              		.global	SCB_Start
  54              		.code	16
  55              		.thumb_func
  56              		.type	SCB_Start, %function
  57              	SCB_Start:
  58              	.LFB133:
  59              		.file 2 "Generated_Source\\PSoC6\\SCB.c"
   1:Generated_Source\PSoC6/SCB.c **** /***************************************************************************//**
   2:Generated_Source\PSoC6/SCB.c **** * \file SCB.c
   3:Generated_Source\PSoC6/SCB.c **** * \version 2.0
   4:Generated_Source\PSoC6/SCB.c **** *
   5:Generated_Source\PSoC6/SCB.c **** *  This file provides the source code to the API for the EZI2C Component.
   6:Generated_Source\PSoC6/SCB.c **** *
   7:Generated_Source\PSoC6/SCB.c **** ********************************************************************************
   8:Generated_Source\PSoC6/SCB.c **** * \copyright
   9:Generated_Source\PSoC6/SCB.c **** * Copyright 2016-2017, Cypress Semiconductor Corporation. All rights reserved.
  10:Generated_Source\PSoC6/SCB.c **** * You may use this file only in accordance with the license, terms, conditions,
  11:Generated_Source\PSoC6/SCB.c **** * disclaimers, and limitations in the end user license agreement accompanying
  12:Generated_Source\PSoC6/SCB.c **** * the software package with which this file was provided.
  13:Generated_Source\PSoC6/SCB.c **** *******************************************************************************/
  14:Generated_Source\PSoC6/SCB.c **** 
  15:Generated_Source\PSoC6/SCB.c **** #include "SCB.h"
  16:Generated_Source\PSoC6/SCB.c **** #include "sysint/cy_sysint.h"
  17:Generated_Source\PSoC6/SCB.c **** #include "cyfitter_sysint.h"
  18:Generated_Source\PSoC6/SCB.c **** #include "cyfitter_sysint_cfg.h"
  19:Generated_Source\PSoC6/SCB.c **** 
  20:Generated_Source\PSoC6/SCB.c **** #if defined(__cplusplus)
  21:Generated_Source\PSoC6/SCB.c **** extern "C" {
  22:Generated_Source\PSoC6/SCB.c **** #endif
  23:Generated_Source\PSoC6/SCB.c **** 
  24:Generated_Source\PSoC6/SCB.c **** /***************************************
  25:Generated_Source\PSoC6/SCB.c **** *     Global variables
  26:Generated_Source\PSoC6/SCB.c **** ***************************************/
  27:Generated_Source\PSoC6/SCB.c **** 
  28:Generated_Source\PSoC6/SCB.c **** /** SCB_initVar indicates whether the SCB
  29:Generated_Source\PSoC6/SCB.c **** *  component has been initialized. The variable is initialized to 0
  30:Generated_Source\PSoC6/SCB.c **** *  and set to 1 the first time SCB_Start() is called.
  31:Generated_Source\PSoC6/SCB.c **** *  This allows  the component to restart without reinitialization
  32:Generated_Source\PSoC6/SCB.c **** *  after the first call to the SCB_Start() routine.
  33:Generated_Source\PSoC6/SCB.c **** *
ARM GAS  C:\Users\DAVIDW~1\AppData\Local\Temp\ccImPayJ.s 			page 7


  34:Generated_Source\PSoC6/SCB.c **** *  If re-initialization of the component is required, then the
  35:Generated_Source\PSoC6/SCB.c **** *  SCB_Init() function can be called before the
  36:Generated_Source\PSoC6/SCB.c **** *  SCB_Start() or SCB_Enable() function.
  37:Generated_Source\PSoC6/SCB.c **** */
  38:Generated_Source\PSoC6/SCB.c **** uint8_t SCB_initVar = 0U;
  39:Generated_Source\PSoC6/SCB.c **** 
  40:Generated_Source\PSoC6/SCB.c **** /** The instance-specific configuration structure.
  41:Generated_Source\PSoC6/SCB.c **** * The pointer to this structure should be passed to Cy_SCB_EZI2C_Init function
  42:Generated_Source\PSoC6/SCB.c **** * to initialize component with GUI selected settings.
  43:Generated_Source\PSoC6/SCB.c **** */
  44:Generated_Source\PSoC6/SCB.c **** cy_stc_scb_ezi2c_config_t const SCB_config =
  45:Generated_Source\PSoC6/SCB.c **** {
  46:Generated_Source\PSoC6/SCB.c ****     .numberOfAddresses = CY_SCB_EZI2C_ONE_ADDRESS,
  47:Generated_Source\PSoC6/SCB.c ****     .slaveAddress1     = 0x8U,
  48:Generated_Source\PSoC6/SCB.c ****     .slaveAddress2     = 0U,
  49:Generated_Source\PSoC6/SCB.c ****     .subAddressSize    = CY_SCB_EZI2C_SUB_ADDR16_BITS,
  50:Generated_Source\PSoC6/SCB.c **** 
  51:Generated_Source\PSoC6/SCB.c ****     .enableWakeFromSleep = false
  52:Generated_Source\PSoC6/SCB.c **** };
  53:Generated_Source\PSoC6/SCB.c **** 
  54:Generated_Source\PSoC6/SCB.c **** /** The instance-specific context structure.
  55:Generated_Source\PSoC6/SCB.c **** * It is used while the driver operation for internal configuration and
  56:Generated_Source\PSoC6/SCB.c **** * data keeping for the EZI2C. The user should not modify anything in this 
  57:Generated_Source\PSoC6/SCB.c **** * structure.
  58:Generated_Source\PSoC6/SCB.c **** */
  59:Generated_Source\PSoC6/SCB.c **** cy_stc_scb_ezi2c_context_t SCB_context;
  60:Generated_Source\PSoC6/SCB.c **** 
  61:Generated_Source\PSoC6/SCB.c **** 
  62:Generated_Source\PSoC6/SCB.c **** /*******************************************************************************
  63:Generated_Source\PSoC6/SCB.c **** * Function Name: SCB_Start
  64:Generated_Source\PSoC6/SCB.c **** ****************************************************************************//**
  65:Generated_Source\PSoC6/SCB.c **** *
  66:Generated_Source\PSoC6/SCB.c **** * Invokes SCB_Init() and SCB_Enable().
  67:Generated_Source\PSoC6/SCB.c **** * Also configures interrupt and low and high oversampling phases.
  68:Generated_Source\PSoC6/SCB.c **** * After this function call the component is enabled and ready for operation.
  69:Generated_Source\PSoC6/SCB.c **** * This is the preferred method to begin component operation.
  70:Generated_Source\PSoC6/SCB.c **** *
  71:Generated_Source\PSoC6/SCB.c **** * \globalvars
  72:Generated_Source\PSoC6/SCB.c **** * \ref SCB_initVar - used to check initial configuration,
  73:Generated_Source\PSoC6/SCB.c **** * modified  on first function call.
  74:Generated_Source\PSoC6/SCB.c **** *
  75:Generated_Source\PSoC6/SCB.c **** *******************************************************************************/
  76:Generated_Source\PSoC6/SCB.c **** void SCB_Start(void)
  77:Generated_Source\PSoC6/SCB.c **** {
  60              		.loc 2 77 0
  61              		.cfi_startproc
  62              		@ args = 0, pretend = 0, frame = 0
  63              		@ frame_needed = 0, uses_anonymous_args = 0
  64 0000 10B5     		push	{r4, lr}
  65              		.cfi_def_cfa_offset 8
  66              		.cfi_offset 4, -8
  67              		.cfi_offset 14, -4
  78:Generated_Source\PSoC6/SCB.c ****     if (0U == SCB_initVar)
  68              		.loc 2 78 0
  69 0002 114B     		ldr	r3, .L7
  70 0004 1B78     		ldrb	r3, [r3]
  71 0006 002B     		cmp	r3, #0
ARM GAS  C:\Users\DAVIDW~1\AppData\Local\Temp\ccImPayJ.s 			page 8


  72 0008 0BD1     		bne	.L5
  79:Generated_Source\PSoC6/SCB.c ****     {
  80:Generated_Source\PSoC6/SCB.c ****         /* Configure component */
  81:Generated_Source\PSoC6/SCB.c ****         (void) Cy_SCB_EZI2C_Init(SCB_HW, &SCB_config, &SCB_context);
  73              		.loc 2 81 0
  74 000a 104A     		ldr	r2, .L7+4
  75 000c 1049     		ldr	r1, .L7+8
  76 000e 1148     		ldr	r0, .L7+12
  77 0010 FFF7FEFF 		bl	Cy_SCB_EZI2C_Init
  78              	.LVL1:
  82:Generated_Source\PSoC6/SCB.c **** 
  83:Generated_Source\PSoC6/SCB.c ****         /* Hook interrupt service routine */
  84:Generated_Source\PSoC6/SCB.c ****         #if defined(SCB_SCB_IRQ__INTC_ASSIGNED)
  85:Generated_Source\PSoC6/SCB.c ****             (void) Cy_SysInt_Init(&SCB_SCB_IRQ_cfg, &SCB_Interrupt);
  79              		.loc 2 85 0
  80 0014 1049     		ldr	r1, .L7+16
  81 0016 1148     		ldr	r0, .L7+20
  82 0018 FFF7FEFF 		bl	Cy_SysInt_Init
  83              	.LVL2:
  86:Generated_Source\PSoC6/SCB.c ****         #endif /* (SCB_SCB_IRQ__INTC_ASSIGNED) */
  87:Generated_Source\PSoC6/SCB.c **** 
  88:Generated_Source\PSoC6/SCB.c ****         SCB_initVar = 1U;
  84              		.loc 2 88 0
  85 001c 0122     		movs	r2, #1
  86 001e 0A4B     		ldr	r3, .L7
  87 0020 1A70     		strb	r2, [r3]
  88              	.L5:
  89:Generated_Source\PSoC6/SCB.c ****     }
  90:Generated_Source\PSoC6/SCB.c **** 
  91:Generated_Source\PSoC6/SCB.c ****     /* Enable interrupt in NVIC */
  92:Generated_Source\PSoC6/SCB.c ****     #if defined(SCB_SCB_IRQ__INTC_ASSIGNED)
  93:Generated_Source\PSoC6/SCB.c ****         NVIC_EnableIRQ((IRQn_Type) SCB_SCB_IRQ_cfg.intrSrc);
  89              		.loc 2 93 0
  90 0022 0E4B     		ldr	r3, .L7+20
  91 0024 0022     		movs	r2, #0
  92 0026 9A5E     		ldrsh	r2, [r3, r2]
  93              	.LVL3:
  94              	.LBB6:
  95              	.LBB7:
  96              		.file 3 "Generated_Source\\PSoC6\\pdl\\cmsis/include/core_cm0plus.h"
   1:Generated_Source\PSoC6\pdl\cmsis/include/core_cm0plus.h **** /**************************************************************************//**
   2:Generated_Source\PSoC6\pdl\cmsis/include/core_cm0plus.h ****  * @file     core_cm0plus.h
   3:Generated_Source\PSoC6\pdl\cmsis/include/core_cm0plus.h ****  * @brief    CMSIS Cortex-M0+ Core Peripheral Access Layer Header File
   4:Generated_Source\PSoC6\pdl\cmsis/include/core_cm0plus.h ****  * @version  V5.0.1
   5:Generated_Source\PSoC6\pdl\cmsis/include/core_cm0plus.h ****  * @date     25. November 2016
   6:Generated_Source\PSoC6\pdl\cmsis/include/core_cm0plus.h ****  ******************************************************************************/
   7:Generated_Source\PSoC6\pdl\cmsis/include/core_cm0plus.h **** /*
   8:Generated_Source\PSoC6\pdl\cmsis/include/core_cm0plus.h ****  * Copyright (c) 2009-2016 ARM Limited. All rights reserved.
   9:Generated_Source\PSoC6\pdl\cmsis/include/core_cm0plus.h ****  *
  10:Generated_Source\PSoC6\pdl\cmsis/include/core_cm0plus.h ****  * SPDX-License-Identifier: Apache-2.0
  11:Generated_Source\PSoC6\pdl\cmsis/include/core_cm0plus.h ****  *
  12:Generated_Source\PSoC6\pdl\cmsis/include/core_cm0plus.h ****  * Licensed under the Apache License, Version 2.0 (the License); you may
  13:Generated_Source\PSoC6\pdl\cmsis/include/core_cm0plus.h ****  * not use this file except in compliance with the License.
  14:Generated_Source\PSoC6\pdl\cmsis/include/core_cm0plus.h ****  * You may obtain a copy of the License at
  15:Generated_Source\PSoC6\pdl\cmsis/include/core_cm0plus.h ****  *
  16:Generated_Source\PSoC6\pdl\cmsis/include/core_cm0plus.h ****  * www.apache.org/licenses/LICENSE-2.0
  17:Generated_Source\PSoC6\pdl\cmsis/include/core_cm0plus.h ****  *
ARM GAS  C:\Users\DAVIDW~1\AppData\Local\Temp\ccImPayJ.s 			page 9


  18:Generated_Source\PSoC6\pdl\cmsis/include/core_cm0plus.h ****  * Unless required by applicable law or agreed to in writing, software
  19:Generated_Source\PSoC6\pdl\cmsis/include/core_cm0plus.h ****  * distributed under the License is distributed on an AS IS BASIS, WITHOUT
  20:Generated_Source\PSoC6\pdl\cmsis/include/core_cm0plus.h ****  * WARRANTIES OR CONDITIONS OF ANY KIND, either express or implied.
  21:Generated_Source\PSoC6\pdl\cmsis/include/core_cm0plus.h ****  * See the License for the specific language governing permissions and
  22:Generated_Source\PSoC6\pdl\cmsis/include/core_cm0plus.h ****  * limitations under the License.
  23:Generated_Source\PSoC6\pdl\cmsis/include/core_cm0plus.h ****  */
  24:Generated_Source\PSoC6\pdl\cmsis/include/core_cm0plus.h **** 
  25:Generated_Source\PSoC6\pdl\cmsis/include/core_cm0plus.h **** #if   defined ( __ICCARM__ )
  26:Generated_Source\PSoC6\pdl\cmsis/include/core_cm0plus.h ****  #pragma system_include         /* treat file as system include file for MISRA check */
  27:Generated_Source\PSoC6\pdl\cmsis/include/core_cm0plus.h **** #elif defined (__ARMCC_VERSION) && (__ARMCC_VERSION >= 6010050)
  28:Generated_Source\PSoC6\pdl\cmsis/include/core_cm0plus.h ****   #pragma clang system_header   /* treat file as system include file */
  29:Generated_Source\PSoC6\pdl\cmsis/include/core_cm0plus.h **** #endif
  30:Generated_Source\PSoC6\pdl\cmsis/include/core_cm0plus.h **** 
  31:Generated_Source\PSoC6\pdl\cmsis/include/core_cm0plus.h **** #ifndef __CORE_CM0PLUS_H_GENERIC
  32:Generated_Source\PSoC6\pdl\cmsis/include/core_cm0plus.h **** #define __CORE_CM0PLUS_H_GENERIC
  33:Generated_Source\PSoC6\pdl\cmsis/include/core_cm0plus.h **** 
  34:Generated_Source\PSoC6\pdl\cmsis/include/core_cm0plus.h **** #include <stdint.h>
  35:Generated_Source\PSoC6\pdl\cmsis/include/core_cm0plus.h **** 
  36:Generated_Source\PSoC6\pdl\cmsis/include/core_cm0plus.h **** #ifdef __cplusplus
  37:Generated_Source\PSoC6\pdl\cmsis/include/core_cm0plus.h ****  extern "C" {
  38:Generated_Source\PSoC6\pdl\cmsis/include/core_cm0plus.h **** #endif
  39:Generated_Source\PSoC6\pdl\cmsis/include/core_cm0plus.h **** 
  40:Generated_Source\PSoC6\pdl\cmsis/include/core_cm0plus.h **** /**
  41:Generated_Source\PSoC6\pdl\cmsis/include/core_cm0plus.h ****   \page CMSIS_MISRA_Exceptions  MISRA-C:2004 Compliance Exceptions
  42:Generated_Source\PSoC6\pdl\cmsis/include/core_cm0plus.h ****   CMSIS violates the following MISRA-C:2004 rules:
  43:Generated_Source\PSoC6\pdl\cmsis/include/core_cm0plus.h **** 
  44:Generated_Source\PSoC6\pdl\cmsis/include/core_cm0plus.h ****    \li Required Rule 8.5, object/function definition in header file.<br>
  45:Generated_Source\PSoC6\pdl\cmsis/include/core_cm0plus.h ****      Function definitions in header files are used to allow 'inlining'.
  46:Generated_Source\PSoC6\pdl\cmsis/include/core_cm0plus.h **** 
  47:Generated_Source\PSoC6\pdl\cmsis/include/core_cm0plus.h ****    \li Required Rule 18.4, declaration of union type or object of union type: '{...}'.<br>
  48:Generated_Source\PSoC6\pdl\cmsis/include/core_cm0plus.h ****      Unions are used for effective representation of core registers.
  49:Generated_Source\PSoC6\pdl\cmsis/include/core_cm0plus.h **** 
  50:Generated_Source\PSoC6\pdl\cmsis/include/core_cm0plus.h ****    \li Advisory Rule 19.7, Function-like macro defined.<br>
  51:Generated_Source\PSoC6\pdl\cmsis/include/core_cm0plus.h ****      Function-like macros are used to allow more efficient code.
  52:Generated_Source\PSoC6\pdl\cmsis/include/core_cm0plus.h ****  */
  53:Generated_Source\PSoC6\pdl\cmsis/include/core_cm0plus.h **** 
  54:Generated_Source\PSoC6\pdl\cmsis/include/core_cm0plus.h **** 
  55:Generated_Source\PSoC6\pdl\cmsis/include/core_cm0plus.h **** /*******************************************************************************
  56:Generated_Source\PSoC6\pdl\cmsis/include/core_cm0plus.h ****  *                 CMSIS definitions
  57:Generated_Source\PSoC6\pdl\cmsis/include/core_cm0plus.h ****  ******************************************************************************/
  58:Generated_Source\PSoC6\pdl\cmsis/include/core_cm0plus.h **** /**
  59:Generated_Source\PSoC6\pdl\cmsis/include/core_cm0plus.h ****   \ingroup Cortex-M0+
  60:Generated_Source\PSoC6\pdl\cmsis/include/core_cm0plus.h ****   @{
  61:Generated_Source\PSoC6\pdl\cmsis/include/core_cm0plus.h ****  */
  62:Generated_Source\PSoC6\pdl\cmsis/include/core_cm0plus.h **** 
  63:Generated_Source\PSoC6\pdl\cmsis/include/core_cm0plus.h **** /*  CMSIS CM0+ definitions */
  64:Generated_Source\PSoC6\pdl\cmsis/include/core_cm0plus.h **** #define __CM0PLUS_CMSIS_VERSION_MAIN ( 5U)                                      /*!< [31:16] CMSIS 
  65:Generated_Source\PSoC6\pdl\cmsis/include/core_cm0plus.h **** #define __CM0PLUS_CMSIS_VERSION_SUB  ( 0U)                                      /*!< [15:0]  CMSIS 
  66:Generated_Source\PSoC6\pdl\cmsis/include/core_cm0plus.h **** #define __CM0PLUS_CMSIS_VERSION      ((__CM0PLUS_CMSIS_VERSION_MAIN << 16U) | \
  67:Generated_Source\PSoC6\pdl\cmsis/include/core_cm0plus.h ****                                        __CM0PLUS_CMSIS_VERSION_SUB           )  /*!< CMSIS HAL vers
  68:Generated_Source\PSoC6\pdl\cmsis/include/core_cm0plus.h **** 
  69:Generated_Source\PSoC6\pdl\cmsis/include/core_cm0plus.h **** #define __CORTEX_M                   (0U)                                       /*!< Cortex-M Core 
  70:Generated_Source\PSoC6\pdl\cmsis/include/core_cm0plus.h **** 
  71:Generated_Source\PSoC6\pdl\cmsis/include/core_cm0plus.h **** /** __FPU_USED indicates whether an FPU is used or not.
  72:Generated_Source\PSoC6\pdl\cmsis/include/core_cm0plus.h ****     This core does not support an FPU at all
  73:Generated_Source\PSoC6\pdl\cmsis/include/core_cm0plus.h **** */
  74:Generated_Source\PSoC6\pdl\cmsis/include/core_cm0plus.h **** #define __FPU_USED       0U
ARM GAS  C:\Users\DAVIDW~1\AppData\Local\Temp\ccImPayJ.s 			page 10


  75:Generated_Source\PSoC6\pdl\cmsis/include/core_cm0plus.h **** 
  76:Generated_Source\PSoC6\pdl\cmsis/include/core_cm0plus.h **** #if defined ( __CC_ARM )
  77:Generated_Source\PSoC6\pdl\cmsis/include/core_cm0plus.h ****   #if defined __TARGET_FPU_VFP
  78:Generated_Source\PSoC6\pdl\cmsis/include/core_cm0plus.h ****     #error "Compiler generates FPU instructions for a device without an FPU (check __FPU_PRESENT)"
  79:Generated_Source\PSoC6\pdl\cmsis/include/core_cm0plus.h ****   #endif
  80:Generated_Source\PSoC6\pdl\cmsis/include/core_cm0plus.h **** 
  81:Generated_Source\PSoC6\pdl\cmsis/include/core_cm0plus.h **** #elif defined (__ARMCC_VERSION) && (__ARMCC_VERSION >= 6010050)
  82:Generated_Source\PSoC6\pdl\cmsis/include/core_cm0plus.h ****   #if defined __ARM_PCS_VFP
  83:Generated_Source\PSoC6\pdl\cmsis/include/core_cm0plus.h ****     #error "Compiler generates FPU instructions for a device without an FPU (check __FPU_PRESENT)"
  84:Generated_Source\PSoC6\pdl\cmsis/include/core_cm0plus.h ****   #endif
  85:Generated_Source\PSoC6\pdl\cmsis/include/core_cm0plus.h **** 
  86:Generated_Source\PSoC6\pdl\cmsis/include/core_cm0plus.h **** #elif defined ( __GNUC__ )
  87:Generated_Source\PSoC6\pdl\cmsis/include/core_cm0plus.h ****   #if defined (__VFP_FP__) && !defined(__SOFTFP__)
  88:Generated_Source\PSoC6\pdl\cmsis/include/core_cm0plus.h ****     #error "Compiler generates FPU instructions for a device without an FPU (check __FPU_PRESENT)"
  89:Generated_Source\PSoC6\pdl\cmsis/include/core_cm0plus.h ****   #endif
  90:Generated_Source\PSoC6\pdl\cmsis/include/core_cm0plus.h **** 
  91:Generated_Source\PSoC6\pdl\cmsis/include/core_cm0plus.h **** #elif defined ( __ICCARM__ )
  92:Generated_Source\PSoC6\pdl\cmsis/include/core_cm0plus.h ****   #if defined __ARMVFP__
  93:Generated_Source\PSoC6\pdl\cmsis/include/core_cm0plus.h ****     #error "Compiler generates FPU instructions for a device without an FPU (check __FPU_PRESENT)"
  94:Generated_Source\PSoC6\pdl\cmsis/include/core_cm0plus.h ****   #endif
  95:Generated_Source\PSoC6\pdl\cmsis/include/core_cm0plus.h **** 
  96:Generated_Source\PSoC6\pdl\cmsis/include/core_cm0plus.h **** #elif defined ( __TI_ARM__ )
  97:Generated_Source\PSoC6\pdl\cmsis/include/core_cm0plus.h ****   #if defined __TI_VFP_SUPPORT__
  98:Generated_Source\PSoC6\pdl\cmsis/include/core_cm0plus.h ****     #error "Compiler generates FPU instructions for a device without an FPU (check __FPU_PRESENT)"
  99:Generated_Source\PSoC6\pdl\cmsis/include/core_cm0plus.h ****   #endif
 100:Generated_Source\PSoC6\pdl\cmsis/include/core_cm0plus.h **** 
 101:Generated_Source\PSoC6\pdl\cmsis/include/core_cm0plus.h **** #elif defined ( __TASKING__ )
 102:Generated_Source\PSoC6\pdl\cmsis/include/core_cm0plus.h ****   #if defined __FPU_VFP__
 103:Generated_Source\PSoC6\pdl\cmsis/include/core_cm0plus.h ****     #error "Compiler generates FPU instructions for a device without an FPU (check __FPU_PRESENT)"
 104:Generated_Source\PSoC6\pdl\cmsis/include/core_cm0plus.h ****   #endif
 105:Generated_Source\PSoC6\pdl\cmsis/include/core_cm0plus.h **** 
 106:Generated_Source\PSoC6\pdl\cmsis/include/core_cm0plus.h **** #elif defined ( __CSMC__ )
 107:Generated_Source\PSoC6\pdl\cmsis/include/core_cm0plus.h ****   #if ( __CSMC__ & 0x400U)
 108:Generated_Source\PSoC6\pdl\cmsis/include/core_cm0plus.h ****     #error "Compiler generates FPU instructions for a device without an FPU (check __FPU_PRESENT)"
 109:Generated_Source\PSoC6\pdl\cmsis/include/core_cm0plus.h ****   #endif
 110:Generated_Source\PSoC6\pdl\cmsis/include/core_cm0plus.h **** 
 111:Generated_Source\PSoC6\pdl\cmsis/include/core_cm0plus.h **** #endif
 112:Generated_Source\PSoC6\pdl\cmsis/include/core_cm0plus.h **** 
 113:Generated_Source\PSoC6\pdl\cmsis/include/core_cm0plus.h **** #include "cmsis_compiler.h"               /* CMSIS compiler specific defines */
 114:Generated_Source\PSoC6\pdl\cmsis/include/core_cm0plus.h **** 
 115:Generated_Source\PSoC6\pdl\cmsis/include/core_cm0plus.h **** 
 116:Generated_Source\PSoC6\pdl\cmsis/include/core_cm0plus.h **** #ifdef __cplusplus
 117:Generated_Source\PSoC6\pdl\cmsis/include/core_cm0plus.h **** }
 118:Generated_Source\PSoC6\pdl\cmsis/include/core_cm0plus.h **** #endif
 119:Generated_Source\PSoC6\pdl\cmsis/include/core_cm0plus.h **** 
 120:Generated_Source\PSoC6\pdl\cmsis/include/core_cm0plus.h **** #endif /* __CORE_CM0PLUS_H_GENERIC */
 121:Generated_Source\PSoC6\pdl\cmsis/include/core_cm0plus.h **** 
 122:Generated_Source\PSoC6\pdl\cmsis/include/core_cm0plus.h **** #ifndef __CMSIS_GENERIC
 123:Generated_Source\PSoC6\pdl\cmsis/include/core_cm0plus.h **** 
 124:Generated_Source\PSoC6\pdl\cmsis/include/core_cm0plus.h **** #ifndef __CORE_CM0PLUS_H_DEPENDANT
 125:Generated_Source\PSoC6\pdl\cmsis/include/core_cm0plus.h **** #define __CORE_CM0PLUS_H_DEPENDANT
 126:Generated_Source\PSoC6\pdl\cmsis/include/core_cm0plus.h **** 
 127:Generated_Source\PSoC6\pdl\cmsis/include/core_cm0plus.h **** #ifdef __cplusplus
 128:Generated_Source\PSoC6\pdl\cmsis/include/core_cm0plus.h ****  extern "C" {
 129:Generated_Source\PSoC6\pdl\cmsis/include/core_cm0plus.h **** #endif
 130:Generated_Source\PSoC6\pdl\cmsis/include/core_cm0plus.h **** 
 131:Generated_Source\PSoC6\pdl\cmsis/include/core_cm0plus.h **** /* check device defines and use defaults */
ARM GAS  C:\Users\DAVIDW~1\AppData\Local\Temp\ccImPayJ.s 			page 11


 132:Generated_Source\PSoC6\pdl\cmsis/include/core_cm0plus.h **** #if defined __CHECK_DEVICE_DEFINES
 133:Generated_Source\PSoC6\pdl\cmsis/include/core_cm0plus.h ****   #ifndef __CM0PLUS_REV
 134:Generated_Source\PSoC6\pdl\cmsis/include/core_cm0plus.h ****     #define __CM0PLUS_REV             0x0000U
 135:Generated_Source\PSoC6\pdl\cmsis/include/core_cm0plus.h ****     #warning "__CM0PLUS_REV not defined in device header file; using default!"
 136:Generated_Source\PSoC6\pdl\cmsis/include/core_cm0plus.h ****   #endif
 137:Generated_Source\PSoC6\pdl\cmsis/include/core_cm0plus.h **** 
 138:Generated_Source\PSoC6\pdl\cmsis/include/core_cm0plus.h ****   #ifndef __MPU_PRESENT
 139:Generated_Source\PSoC6\pdl\cmsis/include/core_cm0plus.h ****     #define __MPU_PRESENT             0U
 140:Generated_Source\PSoC6\pdl\cmsis/include/core_cm0plus.h ****     #warning "__MPU_PRESENT not defined in device header file; using default!"
 141:Generated_Source\PSoC6\pdl\cmsis/include/core_cm0plus.h ****   #endif
 142:Generated_Source\PSoC6\pdl\cmsis/include/core_cm0plus.h **** 
 143:Generated_Source\PSoC6\pdl\cmsis/include/core_cm0plus.h ****   #ifndef __VTOR_PRESENT
 144:Generated_Source\PSoC6\pdl\cmsis/include/core_cm0plus.h ****     #define __VTOR_PRESENT            0U
 145:Generated_Source\PSoC6\pdl\cmsis/include/core_cm0plus.h ****     #warning "__VTOR_PRESENT not defined in device header file; using default!"
 146:Generated_Source\PSoC6\pdl\cmsis/include/core_cm0plus.h ****   #endif
 147:Generated_Source\PSoC6\pdl\cmsis/include/core_cm0plus.h **** 
 148:Generated_Source\PSoC6\pdl\cmsis/include/core_cm0plus.h ****   #ifndef __NVIC_PRIO_BITS
 149:Generated_Source\PSoC6\pdl\cmsis/include/core_cm0plus.h ****     #define __NVIC_PRIO_BITS          2U
 150:Generated_Source\PSoC6\pdl\cmsis/include/core_cm0plus.h ****     #warning "__NVIC_PRIO_BITS not defined in device header file; using default!"
 151:Generated_Source\PSoC6\pdl\cmsis/include/core_cm0plus.h ****   #endif
 152:Generated_Source\PSoC6\pdl\cmsis/include/core_cm0plus.h **** 
 153:Generated_Source\PSoC6\pdl\cmsis/include/core_cm0plus.h ****   #ifndef __Vendor_SysTickConfig
 154:Generated_Source\PSoC6\pdl\cmsis/include/core_cm0plus.h ****     #define __Vendor_SysTickConfig    0U
 155:Generated_Source\PSoC6\pdl\cmsis/include/core_cm0plus.h ****     #warning "__Vendor_SysTickConfig not defined in device header file; using default!"
 156:Generated_Source\PSoC6\pdl\cmsis/include/core_cm0plus.h ****   #endif
 157:Generated_Source\PSoC6\pdl\cmsis/include/core_cm0plus.h **** #endif
 158:Generated_Source\PSoC6\pdl\cmsis/include/core_cm0plus.h **** 
 159:Generated_Source\PSoC6\pdl\cmsis/include/core_cm0plus.h **** /* IO definitions (access restrictions to peripheral registers) */
 160:Generated_Source\PSoC6\pdl\cmsis/include/core_cm0plus.h **** /**
 161:Generated_Source\PSoC6\pdl\cmsis/include/core_cm0plus.h ****     \defgroup CMSIS_glob_defs CMSIS Global Defines
 162:Generated_Source\PSoC6\pdl\cmsis/include/core_cm0plus.h **** 
 163:Generated_Source\PSoC6\pdl\cmsis/include/core_cm0plus.h ****     <strong>IO Type Qualifiers</strong> are used
 164:Generated_Source\PSoC6\pdl\cmsis/include/core_cm0plus.h ****     \li to specify the access to peripheral variables.
 165:Generated_Source\PSoC6\pdl\cmsis/include/core_cm0plus.h ****     \li for automatic generation of peripheral register debug information.
 166:Generated_Source\PSoC6\pdl\cmsis/include/core_cm0plus.h **** */
 167:Generated_Source\PSoC6\pdl\cmsis/include/core_cm0plus.h **** #ifdef __cplusplus
 168:Generated_Source\PSoC6\pdl\cmsis/include/core_cm0plus.h ****   #define   __I     volatile             /*!< Defines 'read only' permissions */
 169:Generated_Source\PSoC6\pdl\cmsis/include/core_cm0plus.h **** #else
 170:Generated_Source\PSoC6\pdl\cmsis/include/core_cm0plus.h ****   #define   __I     volatile const       /*!< Defines 'read only' permissions */
 171:Generated_Source\PSoC6\pdl\cmsis/include/core_cm0plus.h **** #endif
 172:Generated_Source\PSoC6\pdl\cmsis/include/core_cm0plus.h **** #define     __O     volatile             /*!< Defines 'write only' permissions */
 173:Generated_Source\PSoC6\pdl\cmsis/include/core_cm0plus.h **** #define     __IO    volatile             /*!< Defines 'read / write' permissions */
 174:Generated_Source\PSoC6\pdl\cmsis/include/core_cm0plus.h **** 
 175:Generated_Source\PSoC6\pdl\cmsis/include/core_cm0plus.h **** /* following defines should be used for structure members */
 176:Generated_Source\PSoC6\pdl\cmsis/include/core_cm0plus.h **** #define     __IM     volatile const      /*! Defines 'read only' structure member permissions */
 177:Generated_Source\PSoC6\pdl\cmsis/include/core_cm0plus.h **** #define     __OM     volatile            /*! Defines 'write only' structure member permissions */
 178:Generated_Source\PSoC6\pdl\cmsis/include/core_cm0plus.h **** #define     __IOM    volatile            /*! Defines 'read / write' structure member permissions */
 179:Generated_Source\PSoC6\pdl\cmsis/include/core_cm0plus.h **** 
 180:Generated_Source\PSoC6\pdl\cmsis/include/core_cm0plus.h **** /*@} end of group Cortex-M0+ */
 181:Generated_Source\PSoC6\pdl\cmsis/include/core_cm0plus.h **** 
 182:Generated_Source\PSoC6\pdl\cmsis/include/core_cm0plus.h **** 
 183:Generated_Source\PSoC6\pdl\cmsis/include/core_cm0plus.h **** 
 184:Generated_Source\PSoC6\pdl\cmsis/include/core_cm0plus.h **** /*******************************************************************************
 185:Generated_Source\PSoC6\pdl\cmsis/include/core_cm0plus.h ****  *                 Register Abstraction
 186:Generated_Source\PSoC6\pdl\cmsis/include/core_cm0plus.h ****   Core Register contain:
 187:Generated_Source\PSoC6\pdl\cmsis/include/core_cm0plus.h ****   - Core Register
 188:Generated_Source\PSoC6\pdl\cmsis/include/core_cm0plus.h ****   - Core NVIC Register
ARM GAS  C:\Users\DAVIDW~1\AppData\Local\Temp\ccImPayJ.s 			page 12


 189:Generated_Source\PSoC6\pdl\cmsis/include/core_cm0plus.h ****   - Core SCB Register
 190:Generated_Source\PSoC6\pdl\cmsis/include/core_cm0plus.h ****   - Core SysTick Register
 191:Generated_Source\PSoC6\pdl\cmsis/include/core_cm0plus.h ****   - Core MPU Register
 192:Generated_Source\PSoC6\pdl\cmsis/include/core_cm0plus.h ****  ******************************************************************************/
 193:Generated_Source\PSoC6\pdl\cmsis/include/core_cm0plus.h **** /**
 194:Generated_Source\PSoC6\pdl\cmsis/include/core_cm0plus.h ****   \defgroup CMSIS_core_register Defines and Type Definitions
 195:Generated_Source\PSoC6\pdl\cmsis/include/core_cm0plus.h ****   \brief Type definitions and defines for Cortex-M processor based devices.
 196:Generated_Source\PSoC6\pdl\cmsis/include/core_cm0plus.h **** */
 197:Generated_Source\PSoC6\pdl\cmsis/include/core_cm0plus.h **** 
 198:Generated_Source\PSoC6\pdl\cmsis/include/core_cm0plus.h **** /**
 199:Generated_Source\PSoC6\pdl\cmsis/include/core_cm0plus.h ****   \ingroup    CMSIS_core_register
 200:Generated_Source\PSoC6\pdl\cmsis/include/core_cm0plus.h ****   \defgroup   CMSIS_CORE  Status and Control Registers
 201:Generated_Source\PSoC6\pdl\cmsis/include/core_cm0plus.h ****   \brief      Core Register type definitions.
 202:Generated_Source\PSoC6\pdl\cmsis/include/core_cm0plus.h ****   @{
 203:Generated_Source\PSoC6\pdl\cmsis/include/core_cm0plus.h ****  */
 204:Generated_Source\PSoC6\pdl\cmsis/include/core_cm0plus.h **** 
 205:Generated_Source\PSoC6\pdl\cmsis/include/core_cm0plus.h **** /**
 206:Generated_Source\PSoC6\pdl\cmsis/include/core_cm0plus.h ****   \brief  Union type to access the Application Program Status Register (APSR).
 207:Generated_Source\PSoC6\pdl\cmsis/include/core_cm0plus.h ****  */
 208:Generated_Source\PSoC6\pdl\cmsis/include/core_cm0plus.h **** typedef union
 209:Generated_Source\PSoC6\pdl\cmsis/include/core_cm0plus.h **** {
 210:Generated_Source\PSoC6\pdl\cmsis/include/core_cm0plus.h ****   struct
 211:Generated_Source\PSoC6\pdl\cmsis/include/core_cm0plus.h ****   {
 212:Generated_Source\PSoC6\pdl\cmsis/include/core_cm0plus.h ****     uint32_t _reserved0:28;              /*!< bit:  0..27  Reserved */
 213:Generated_Source\PSoC6\pdl\cmsis/include/core_cm0plus.h ****     uint32_t V:1;                        /*!< bit:     28  Overflow condition code flag */
 214:Generated_Source\PSoC6\pdl\cmsis/include/core_cm0plus.h ****     uint32_t C:1;                        /*!< bit:     29  Carry condition code flag */
 215:Generated_Source\PSoC6\pdl\cmsis/include/core_cm0plus.h ****     uint32_t Z:1;                        /*!< bit:     30  Zero condition code flag */
 216:Generated_Source\PSoC6\pdl\cmsis/include/core_cm0plus.h ****     uint32_t N:1;                        /*!< bit:     31  Negative condition code flag */
 217:Generated_Source\PSoC6\pdl\cmsis/include/core_cm0plus.h ****   } b;                                   /*!< Structure used for bit  access */
 218:Generated_Source\PSoC6\pdl\cmsis/include/core_cm0plus.h ****   uint32_t w;                            /*!< Type      used for word access */
 219:Generated_Source\PSoC6\pdl\cmsis/include/core_cm0plus.h **** } APSR_Type;
 220:Generated_Source\PSoC6\pdl\cmsis/include/core_cm0plus.h **** 
 221:Generated_Source\PSoC6\pdl\cmsis/include/core_cm0plus.h **** /* APSR Register Definitions */
 222:Generated_Source\PSoC6\pdl\cmsis/include/core_cm0plus.h **** #define APSR_N_Pos                         31U                                            /*!< APSR
 223:Generated_Source\PSoC6\pdl\cmsis/include/core_cm0plus.h **** #define APSR_N_Msk                         (1UL << APSR_N_Pos)                            /*!< APSR
 224:Generated_Source\PSoC6\pdl\cmsis/include/core_cm0plus.h **** 
 225:Generated_Source\PSoC6\pdl\cmsis/include/core_cm0plus.h **** #define APSR_Z_Pos                         30U                                            /*!< APSR
 226:Generated_Source\PSoC6\pdl\cmsis/include/core_cm0plus.h **** #define APSR_Z_Msk                         (1UL << APSR_Z_Pos)                            /*!< APSR
 227:Generated_Source\PSoC6\pdl\cmsis/include/core_cm0plus.h **** 
 228:Generated_Source\PSoC6\pdl\cmsis/include/core_cm0plus.h **** #define APSR_C_Pos                         29U                                            /*!< APSR
 229:Generated_Source\PSoC6\pdl\cmsis/include/core_cm0plus.h **** #define APSR_C_Msk                         (1UL << APSR_C_Pos)                            /*!< APSR
 230:Generated_Source\PSoC6\pdl\cmsis/include/core_cm0plus.h **** 
 231:Generated_Source\PSoC6\pdl\cmsis/include/core_cm0plus.h **** #define APSR_V_Pos                         28U                                            /*!< APSR
 232:Generated_Source\PSoC6\pdl\cmsis/include/core_cm0plus.h **** #define APSR_V_Msk                         (1UL << APSR_V_Pos)                            /*!< APSR
 233:Generated_Source\PSoC6\pdl\cmsis/include/core_cm0plus.h **** 
 234:Generated_Source\PSoC6\pdl\cmsis/include/core_cm0plus.h **** 
 235:Generated_Source\PSoC6\pdl\cmsis/include/core_cm0plus.h **** /**
 236:Generated_Source\PSoC6\pdl\cmsis/include/core_cm0plus.h ****   \brief  Union type to access the Interrupt Program Status Register (IPSR).
 237:Generated_Source\PSoC6\pdl\cmsis/include/core_cm0plus.h ****  */
 238:Generated_Source\PSoC6\pdl\cmsis/include/core_cm0plus.h **** typedef union
 239:Generated_Source\PSoC6\pdl\cmsis/include/core_cm0plus.h **** {
 240:Generated_Source\PSoC6\pdl\cmsis/include/core_cm0plus.h ****   struct
 241:Generated_Source\PSoC6\pdl\cmsis/include/core_cm0plus.h ****   {
 242:Generated_Source\PSoC6\pdl\cmsis/include/core_cm0plus.h ****     uint32_t ISR:9;                      /*!< bit:  0.. 8  Exception number */
 243:Generated_Source\PSoC6\pdl\cmsis/include/core_cm0plus.h ****     uint32_t _reserved0:23;              /*!< bit:  9..31  Reserved */
 244:Generated_Source\PSoC6\pdl\cmsis/include/core_cm0plus.h ****   } b;                                   /*!< Structure used for bit  access */
 245:Generated_Source\PSoC6\pdl\cmsis/include/core_cm0plus.h ****   uint32_t w;                            /*!< Type      used for word access */
ARM GAS  C:\Users\DAVIDW~1\AppData\Local\Temp\ccImPayJ.s 			page 13


 246:Generated_Source\PSoC6\pdl\cmsis/include/core_cm0plus.h **** } IPSR_Type;
 247:Generated_Source\PSoC6\pdl\cmsis/include/core_cm0plus.h **** 
 248:Generated_Source\PSoC6\pdl\cmsis/include/core_cm0plus.h **** /* IPSR Register Definitions */
 249:Generated_Source\PSoC6\pdl\cmsis/include/core_cm0plus.h **** #define IPSR_ISR_Pos                        0U                                            /*!< IPSR
 250:Generated_Source\PSoC6\pdl\cmsis/include/core_cm0plus.h **** #define IPSR_ISR_Msk                       (0x1FFUL /*<< IPSR_ISR_Pos*/)                  /*!< IPSR
 251:Generated_Source\PSoC6\pdl\cmsis/include/core_cm0plus.h **** 
 252:Generated_Source\PSoC6\pdl\cmsis/include/core_cm0plus.h **** 
 253:Generated_Source\PSoC6\pdl\cmsis/include/core_cm0plus.h **** /**
 254:Generated_Source\PSoC6\pdl\cmsis/include/core_cm0plus.h ****   \brief  Union type to access the Special-Purpose Program Status Registers (xPSR).
 255:Generated_Source\PSoC6\pdl\cmsis/include/core_cm0plus.h ****  */
 256:Generated_Source\PSoC6\pdl\cmsis/include/core_cm0plus.h **** typedef union
 257:Generated_Source\PSoC6\pdl\cmsis/include/core_cm0plus.h **** {
 258:Generated_Source\PSoC6\pdl\cmsis/include/core_cm0plus.h ****   struct
 259:Generated_Source\PSoC6\pdl\cmsis/include/core_cm0plus.h ****   {
 260:Generated_Source\PSoC6\pdl\cmsis/include/core_cm0plus.h ****     uint32_t ISR:9;                      /*!< bit:  0.. 8  Exception number */
 261:Generated_Source\PSoC6\pdl\cmsis/include/core_cm0plus.h ****     uint32_t _reserved0:15;              /*!< bit:  9..23  Reserved */
 262:Generated_Source\PSoC6\pdl\cmsis/include/core_cm0plus.h ****     uint32_t T:1;                        /*!< bit:     24  Thumb bit        (read 0) */
 263:Generated_Source\PSoC6\pdl\cmsis/include/core_cm0plus.h ****     uint32_t _reserved1:3;               /*!< bit: 25..27  Reserved */
 264:Generated_Source\PSoC6\pdl\cmsis/include/core_cm0plus.h ****     uint32_t V:1;                        /*!< bit:     28  Overflow condition code flag */
 265:Generated_Source\PSoC6\pdl\cmsis/include/core_cm0plus.h ****     uint32_t C:1;                        /*!< bit:     29  Carry condition code flag */
 266:Generated_Source\PSoC6\pdl\cmsis/include/core_cm0plus.h ****     uint32_t Z:1;                        /*!< bit:     30  Zero condition code flag */
 267:Generated_Source\PSoC6\pdl\cmsis/include/core_cm0plus.h ****     uint32_t N:1;                        /*!< bit:     31  Negative condition code flag */
 268:Generated_Source\PSoC6\pdl\cmsis/include/core_cm0plus.h ****   } b;                                   /*!< Structure used for bit  access */
 269:Generated_Source\PSoC6\pdl\cmsis/include/core_cm0plus.h ****   uint32_t w;                            /*!< Type      used for word access */
 270:Generated_Source\PSoC6\pdl\cmsis/include/core_cm0plus.h **** } xPSR_Type;
 271:Generated_Source\PSoC6\pdl\cmsis/include/core_cm0plus.h **** 
 272:Generated_Source\PSoC6\pdl\cmsis/include/core_cm0plus.h **** /* xPSR Register Definitions */
 273:Generated_Source\PSoC6\pdl\cmsis/include/core_cm0plus.h **** #define xPSR_N_Pos                         31U                                            /*!< xPSR
 274:Generated_Source\PSoC6\pdl\cmsis/include/core_cm0plus.h **** #define xPSR_N_Msk                         (1UL << xPSR_N_Pos)                            /*!< xPSR
 275:Generated_Source\PSoC6\pdl\cmsis/include/core_cm0plus.h **** 
 276:Generated_Source\PSoC6\pdl\cmsis/include/core_cm0plus.h **** #define xPSR_Z_Pos                         30U                                            /*!< xPSR
 277:Generated_Source\PSoC6\pdl\cmsis/include/core_cm0plus.h **** #define xPSR_Z_Msk                         (1UL << xPSR_Z_Pos)                            /*!< xPSR
 278:Generated_Source\PSoC6\pdl\cmsis/include/core_cm0plus.h **** 
 279:Generated_Source\PSoC6\pdl\cmsis/include/core_cm0plus.h **** #define xPSR_C_Pos                         29U                                            /*!< xPSR
 280:Generated_Source\PSoC6\pdl\cmsis/include/core_cm0plus.h **** #define xPSR_C_Msk                         (1UL << xPSR_C_Pos)                            /*!< xPSR
 281:Generated_Source\PSoC6\pdl\cmsis/include/core_cm0plus.h **** 
 282:Generated_Source\PSoC6\pdl\cmsis/include/core_cm0plus.h **** #define xPSR_V_Pos                         28U                                            /*!< xPSR
 283:Generated_Source\PSoC6\pdl\cmsis/include/core_cm0plus.h **** #define xPSR_V_Msk                         (1UL << xPSR_V_Pos)                            /*!< xPSR
 284:Generated_Source\PSoC6\pdl\cmsis/include/core_cm0plus.h **** 
 285:Generated_Source\PSoC6\pdl\cmsis/include/core_cm0plus.h **** #define xPSR_T_Pos                         24U                                            /*!< xPSR
 286:Generated_Source\PSoC6\pdl\cmsis/include/core_cm0plus.h **** #define xPSR_T_Msk                         (1UL << xPSR_T_Pos)                            /*!< xPSR
 287:Generated_Source\PSoC6\pdl\cmsis/include/core_cm0plus.h **** 
 288:Generated_Source\PSoC6\pdl\cmsis/include/core_cm0plus.h **** #define xPSR_ISR_Pos                        0U                                            /*!< xPSR
 289:Generated_Source\PSoC6\pdl\cmsis/include/core_cm0plus.h **** #define xPSR_ISR_Msk                       (0x1FFUL /*<< xPSR_ISR_Pos*/)                  /*!< xPSR
 290:Generated_Source\PSoC6\pdl\cmsis/include/core_cm0plus.h **** 
 291:Generated_Source\PSoC6\pdl\cmsis/include/core_cm0plus.h **** 
 292:Generated_Source\PSoC6\pdl\cmsis/include/core_cm0plus.h **** /**
 293:Generated_Source\PSoC6\pdl\cmsis/include/core_cm0plus.h ****   \brief  Union type to access the Control Registers (CONTROL).
 294:Generated_Source\PSoC6\pdl\cmsis/include/core_cm0plus.h ****  */
 295:Generated_Source\PSoC6\pdl\cmsis/include/core_cm0plus.h **** typedef union
 296:Generated_Source\PSoC6\pdl\cmsis/include/core_cm0plus.h **** {
 297:Generated_Source\PSoC6\pdl\cmsis/include/core_cm0plus.h ****   struct
 298:Generated_Source\PSoC6\pdl\cmsis/include/core_cm0plus.h ****   {
 299:Generated_Source\PSoC6\pdl\cmsis/include/core_cm0plus.h ****     uint32_t nPRIV:1;                    /*!< bit:      0  Execution privilege in Thread mode */
 300:Generated_Source\PSoC6\pdl\cmsis/include/core_cm0plus.h ****     uint32_t SPSEL:1;                    /*!< bit:      1  Stack to be used */
 301:Generated_Source\PSoC6\pdl\cmsis/include/core_cm0plus.h ****     uint32_t _reserved1:30;              /*!< bit:  2..31  Reserved */
 302:Generated_Source\PSoC6\pdl\cmsis/include/core_cm0plus.h ****   } b;                                   /*!< Structure used for bit  access */
ARM GAS  C:\Users\DAVIDW~1\AppData\Local\Temp\ccImPayJ.s 			page 14


 303:Generated_Source\PSoC6\pdl\cmsis/include/core_cm0plus.h ****   uint32_t w;                            /*!< Type      used for word access */
 304:Generated_Source\PSoC6\pdl\cmsis/include/core_cm0plus.h **** } CONTROL_Type;
 305:Generated_Source\PSoC6\pdl\cmsis/include/core_cm0plus.h **** 
 306:Generated_Source\PSoC6\pdl\cmsis/include/core_cm0plus.h **** /* CONTROL Register Definitions */
 307:Generated_Source\PSoC6\pdl\cmsis/include/core_cm0plus.h **** #define CONTROL_SPSEL_Pos                   1U                                            /*!< CONT
 308:Generated_Source\PSoC6\pdl\cmsis/include/core_cm0plus.h **** #define CONTROL_SPSEL_Msk                  (1UL << CONTROL_SPSEL_Pos)                     /*!< CONT
 309:Generated_Source\PSoC6\pdl\cmsis/include/core_cm0plus.h **** 
 310:Generated_Source\PSoC6\pdl\cmsis/include/core_cm0plus.h **** #define CONTROL_nPRIV_Pos                   0U                                            /*!< CONT
 311:Generated_Source\PSoC6\pdl\cmsis/include/core_cm0plus.h **** #define CONTROL_nPRIV_Msk                  (1UL /*<< CONTROL_nPRIV_Pos*/)                 /*!< CONT
 312:Generated_Source\PSoC6\pdl\cmsis/include/core_cm0plus.h **** 
 313:Generated_Source\PSoC6\pdl\cmsis/include/core_cm0plus.h **** /*@} end of group CMSIS_CORE */
 314:Generated_Source\PSoC6\pdl\cmsis/include/core_cm0plus.h **** 
 315:Generated_Source\PSoC6\pdl\cmsis/include/core_cm0plus.h **** 
 316:Generated_Source\PSoC6\pdl\cmsis/include/core_cm0plus.h **** /**
 317:Generated_Source\PSoC6\pdl\cmsis/include/core_cm0plus.h ****   \ingroup    CMSIS_core_register
 318:Generated_Source\PSoC6\pdl\cmsis/include/core_cm0plus.h ****   \defgroup   CMSIS_NVIC  Nested Vectored Interrupt Controller (NVIC)
 319:Generated_Source\PSoC6\pdl\cmsis/include/core_cm0plus.h ****   \brief      Type definitions for the NVIC Registers
 320:Generated_Source\PSoC6\pdl\cmsis/include/core_cm0plus.h ****   @{
 321:Generated_Source\PSoC6\pdl\cmsis/include/core_cm0plus.h ****  */
 322:Generated_Source\PSoC6\pdl\cmsis/include/core_cm0plus.h **** 
 323:Generated_Source\PSoC6\pdl\cmsis/include/core_cm0plus.h **** /**
 324:Generated_Source\PSoC6\pdl\cmsis/include/core_cm0plus.h ****   \brief  Structure type to access the Nested Vectored Interrupt Controller (NVIC).
 325:Generated_Source\PSoC6\pdl\cmsis/include/core_cm0plus.h ****  */
 326:Generated_Source\PSoC6\pdl\cmsis/include/core_cm0plus.h **** typedef struct
 327:Generated_Source\PSoC6\pdl\cmsis/include/core_cm0plus.h **** {
 328:Generated_Source\PSoC6\pdl\cmsis/include/core_cm0plus.h ****   __IOM uint32_t ISER[1U];               /*!< Offset: 0x000 (R/W)  Interrupt Set Enable Register */
 329:Generated_Source\PSoC6\pdl\cmsis/include/core_cm0plus.h ****         uint32_t RESERVED0[31U];
 330:Generated_Source\PSoC6\pdl\cmsis/include/core_cm0plus.h ****   __IOM uint32_t ICER[1U];               /*!< Offset: 0x080 (R/W)  Interrupt Clear Enable Register 
 331:Generated_Source\PSoC6\pdl\cmsis/include/core_cm0plus.h ****         uint32_t RSERVED1[31U];
 332:Generated_Source\PSoC6\pdl\cmsis/include/core_cm0plus.h ****   __IOM uint32_t ISPR[1U];               /*!< Offset: 0x100 (R/W)  Interrupt Set Pending Register *
 333:Generated_Source\PSoC6\pdl\cmsis/include/core_cm0plus.h ****         uint32_t RESERVED2[31U];
 334:Generated_Source\PSoC6\pdl\cmsis/include/core_cm0plus.h ****   __IOM uint32_t ICPR[1U];               /*!< Offset: 0x180 (R/W)  Interrupt Clear Pending Register
 335:Generated_Source\PSoC6\pdl\cmsis/include/core_cm0plus.h ****         uint32_t RESERVED3[31U];
 336:Generated_Source\PSoC6\pdl\cmsis/include/core_cm0plus.h ****         uint32_t RESERVED4[64U];
 337:Generated_Source\PSoC6\pdl\cmsis/include/core_cm0plus.h ****   __IOM uint32_t IP[8U];                 /*!< Offset: 0x300 (R/W)  Interrupt Priority Register */
 338:Generated_Source\PSoC6\pdl\cmsis/include/core_cm0plus.h **** }  NVIC_Type;
 339:Generated_Source\PSoC6\pdl\cmsis/include/core_cm0plus.h **** 
 340:Generated_Source\PSoC6\pdl\cmsis/include/core_cm0plus.h **** /*@} end of group CMSIS_NVIC */
 341:Generated_Source\PSoC6\pdl\cmsis/include/core_cm0plus.h **** 
 342:Generated_Source\PSoC6\pdl\cmsis/include/core_cm0plus.h **** 
 343:Generated_Source\PSoC6\pdl\cmsis/include/core_cm0plus.h **** /**
 344:Generated_Source\PSoC6\pdl\cmsis/include/core_cm0plus.h ****   \ingroup  CMSIS_core_register
 345:Generated_Source\PSoC6\pdl\cmsis/include/core_cm0plus.h ****   \defgroup CMSIS_SCB     System Control Block (SCB)
 346:Generated_Source\PSoC6\pdl\cmsis/include/core_cm0plus.h ****   \brief    Type definitions for the System Control Block Registers
 347:Generated_Source\PSoC6\pdl\cmsis/include/core_cm0plus.h ****   @{
 348:Generated_Source\PSoC6\pdl\cmsis/include/core_cm0plus.h ****  */
 349:Generated_Source\PSoC6\pdl\cmsis/include/core_cm0plus.h **** 
 350:Generated_Source\PSoC6\pdl\cmsis/include/core_cm0plus.h **** /**
 351:Generated_Source\PSoC6\pdl\cmsis/include/core_cm0plus.h ****   \brief  Structure type to access the System Control Block (SCB).
 352:Generated_Source\PSoC6\pdl\cmsis/include/core_cm0plus.h ****  */
 353:Generated_Source\PSoC6\pdl\cmsis/include/core_cm0plus.h **** typedef struct
 354:Generated_Source\PSoC6\pdl\cmsis/include/core_cm0plus.h **** {
 355:Generated_Source\PSoC6\pdl\cmsis/include/core_cm0plus.h ****   __IM  uint32_t CPUID;                  /*!< Offset: 0x000 (R/ )  CPUID Base Register */
 356:Generated_Source\PSoC6\pdl\cmsis/include/core_cm0plus.h ****   __IOM uint32_t ICSR;                   /*!< Offset: 0x004 (R/W)  Interrupt Control and State Regi
 357:Generated_Source\PSoC6\pdl\cmsis/include/core_cm0plus.h **** #if defined (__VTOR_PRESENT) && (__VTOR_PRESENT == 1U)
 358:Generated_Source\PSoC6\pdl\cmsis/include/core_cm0plus.h ****   __IOM uint32_t VTOR;                   /*!< Offset: 0x008 (R/W)  Vector Table Offset Register */
 359:Generated_Source\PSoC6\pdl\cmsis/include/core_cm0plus.h **** #else
ARM GAS  C:\Users\DAVIDW~1\AppData\Local\Temp\ccImPayJ.s 			page 15


 360:Generated_Source\PSoC6\pdl\cmsis/include/core_cm0plus.h ****         uint32_t RESERVED0;
 361:Generated_Source\PSoC6\pdl\cmsis/include/core_cm0plus.h **** #endif
 362:Generated_Source\PSoC6\pdl\cmsis/include/core_cm0plus.h ****   __IOM uint32_t AIRCR;                  /*!< Offset: 0x00C (R/W)  Application Interrupt and Reset 
 363:Generated_Source\PSoC6\pdl\cmsis/include/core_cm0plus.h ****   __IOM uint32_t SCR;                    /*!< Offset: 0x010 (R/W)  System Control Register */
 364:Generated_Source\PSoC6\pdl\cmsis/include/core_cm0plus.h ****   __IOM uint32_t CCR;                    /*!< Offset: 0x014 (R/W)  Configuration Control Register *
 365:Generated_Source\PSoC6\pdl\cmsis/include/core_cm0plus.h ****         uint32_t RESERVED1;
 366:Generated_Source\PSoC6\pdl\cmsis/include/core_cm0plus.h ****   __IOM uint32_t SHP[2U];                /*!< Offset: 0x01C (R/W)  System Handlers Priority Registe
 367:Generated_Source\PSoC6\pdl\cmsis/include/core_cm0plus.h ****   __IOM uint32_t SHCSR;                  /*!< Offset: 0x024 (R/W)  System Handler Control and State
 368:Generated_Source\PSoC6\pdl\cmsis/include/core_cm0plus.h **** } SCB_Type;
 369:Generated_Source\PSoC6\pdl\cmsis/include/core_cm0plus.h **** 
 370:Generated_Source\PSoC6\pdl\cmsis/include/core_cm0plus.h **** /* SCB CPUID Register Definitions */
 371:Generated_Source\PSoC6\pdl\cmsis/include/core_cm0plus.h **** #define SCB_CPUID_IMPLEMENTER_Pos          24U                                            /*!< SCB 
 372:Generated_Source\PSoC6\pdl\cmsis/include/core_cm0plus.h **** #define SCB_CPUID_IMPLEMENTER_Msk          (0xFFUL << SCB_CPUID_IMPLEMENTER_Pos)          /*!< SCB 
 373:Generated_Source\PSoC6\pdl\cmsis/include/core_cm0plus.h **** 
 374:Generated_Source\PSoC6\pdl\cmsis/include/core_cm0plus.h **** #define SCB_CPUID_VARIANT_Pos              20U                                            /*!< SCB 
 375:Generated_Source\PSoC6\pdl\cmsis/include/core_cm0plus.h **** #define SCB_CPUID_VARIANT_Msk              (0xFUL << SCB_CPUID_VARIANT_Pos)               /*!< SCB 
 376:Generated_Source\PSoC6\pdl\cmsis/include/core_cm0plus.h **** 
 377:Generated_Source\PSoC6\pdl\cmsis/include/core_cm0plus.h **** #define SCB_CPUID_ARCHITECTURE_Pos         16U                                            /*!< SCB 
 378:Generated_Source\PSoC6\pdl\cmsis/include/core_cm0plus.h **** #define SCB_CPUID_ARCHITECTURE_Msk         (0xFUL << SCB_CPUID_ARCHITECTURE_Pos)          /*!< SCB 
 379:Generated_Source\PSoC6\pdl\cmsis/include/core_cm0plus.h **** 
 380:Generated_Source\PSoC6\pdl\cmsis/include/core_cm0plus.h **** #define SCB_CPUID_PARTNO_Pos                4U                                            /*!< SCB 
 381:Generated_Source\PSoC6\pdl\cmsis/include/core_cm0plus.h **** #define SCB_CPUID_PARTNO_Msk               (0xFFFUL << SCB_CPUID_PARTNO_Pos)              /*!< SCB 
 382:Generated_Source\PSoC6\pdl\cmsis/include/core_cm0plus.h **** 
 383:Generated_Source\PSoC6\pdl\cmsis/include/core_cm0plus.h **** #define SCB_CPUID_REVISION_Pos              0U                                            /*!< SCB 
 384:Generated_Source\PSoC6\pdl\cmsis/include/core_cm0plus.h **** #define SCB_CPUID_REVISION_Msk             (0xFUL /*<< SCB_CPUID_REVISION_Pos*/)          /*!< SCB 
 385:Generated_Source\PSoC6\pdl\cmsis/include/core_cm0plus.h **** 
 386:Generated_Source\PSoC6\pdl\cmsis/include/core_cm0plus.h **** /* SCB Interrupt Control State Register Definitions */
 387:Generated_Source\PSoC6\pdl\cmsis/include/core_cm0plus.h **** #define SCB_ICSR_NMIPENDSET_Pos            31U                                            /*!< SCB 
 388:Generated_Source\PSoC6\pdl\cmsis/include/core_cm0plus.h **** #define SCB_ICSR_NMIPENDSET_Msk            (1UL << SCB_ICSR_NMIPENDSET_Pos)               /*!< SCB 
 389:Generated_Source\PSoC6\pdl\cmsis/include/core_cm0plus.h **** 
 390:Generated_Source\PSoC6\pdl\cmsis/include/core_cm0plus.h **** #define SCB_ICSR_PENDSVSET_Pos             28U                                            /*!< SCB 
 391:Generated_Source\PSoC6\pdl\cmsis/include/core_cm0plus.h **** #define SCB_ICSR_PENDSVSET_Msk             (1UL << SCB_ICSR_PENDSVSET_Pos)                /*!< SCB 
 392:Generated_Source\PSoC6\pdl\cmsis/include/core_cm0plus.h **** 
 393:Generated_Source\PSoC6\pdl\cmsis/include/core_cm0plus.h **** #define SCB_ICSR_PENDSVCLR_Pos             27U                                            /*!< SCB 
 394:Generated_Source\PSoC6\pdl\cmsis/include/core_cm0plus.h **** #define SCB_ICSR_PENDSVCLR_Msk             (1UL << SCB_ICSR_PENDSVCLR_Pos)                /*!< SCB 
 395:Generated_Source\PSoC6\pdl\cmsis/include/core_cm0plus.h **** 
 396:Generated_Source\PSoC6\pdl\cmsis/include/core_cm0plus.h **** #define SCB_ICSR_PENDSTSET_Pos             26U                                            /*!< SCB 
 397:Generated_Source\PSoC6\pdl\cmsis/include/core_cm0plus.h **** #define SCB_ICSR_PENDSTSET_Msk             (1UL << SCB_ICSR_PENDSTSET_Pos)                /*!< SCB 
 398:Generated_Source\PSoC6\pdl\cmsis/include/core_cm0plus.h **** 
 399:Generated_Source\PSoC6\pdl\cmsis/include/core_cm0plus.h **** #define SCB_ICSR_PENDSTCLR_Pos             25U                                            /*!< SCB 
 400:Generated_Source\PSoC6\pdl\cmsis/include/core_cm0plus.h **** #define SCB_ICSR_PENDSTCLR_Msk             (1UL << SCB_ICSR_PENDSTCLR_Pos)                /*!< SCB 
 401:Generated_Source\PSoC6\pdl\cmsis/include/core_cm0plus.h **** 
 402:Generated_Source\PSoC6\pdl\cmsis/include/core_cm0plus.h **** #define SCB_ICSR_ISRPREEMPT_Pos            23U                                            /*!< SCB 
 403:Generated_Source\PSoC6\pdl\cmsis/include/core_cm0plus.h **** #define SCB_ICSR_ISRPREEMPT_Msk            (1UL << SCB_ICSR_ISRPREEMPT_Pos)               /*!< SCB 
 404:Generated_Source\PSoC6\pdl\cmsis/include/core_cm0plus.h **** 
 405:Generated_Source\PSoC6\pdl\cmsis/include/core_cm0plus.h **** #define SCB_ICSR_ISRPENDING_Pos            22U                                            /*!< SCB 
 406:Generated_Source\PSoC6\pdl\cmsis/include/core_cm0plus.h **** #define SCB_ICSR_ISRPENDING_Msk            (1UL << SCB_ICSR_ISRPENDING_Pos)               /*!< SCB 
 407:Generated_Source\PSoC6\pdl\cmsis/include/core_cm0plus.h **** 
 408:Generated_Source\PSoC6\pdl\cmsis/include/core_cm0plus.h **** #define SCB_ICSR_VECTPENDING_Pos           12U                                            /*!< SCB 
 409:Generated_Source\PSoC6\pdl\cmsis/include/core_cm0plus.h **** #define SCB_ICSR_VECTPENDING_Msk           (0x1FFUL << SCB_ICSR_VECTPENDING_Pos)          /*!< SCB 
 410:Generated_Source\PSoC6\pdl\cmsis/include/core_cm0plus.h **** 
 411:Generated_Source\PSoC6\pdl\cmsis/include/core_cm0plus.h **** #define SCB_ICSR_VECTACTIVE_Pos             0U                                            /*!< SCB 
 412:Generated_Source\PSoC6\pdl\cmsis/include/core_cm0plus.h **** #define SCB_ICSR_VECTACTIVE_Msk            (0x1FFUL /*<< SCB_ICSR_VECTACTIVE_Pos*/)       /*!< SCB 
 413:Generated_Source\PSoC6\pdl\cmsis/include/core_cm0plus.h **** 
 414:Generated_Source\PSoC6\pdl\cmsis/include/core_cm0plus.h **** #if defined (__VTOR_PRESENT) && (__VTOR_PRESENT == 1U)
 415:Generated_Source\PSoC6\pdl\cmsis/include/core_cm0plus.h **** /* SCB Interrupt Control State Register Definitions */
 416:Generated_Source\PSoC6\pdl\cmsis/include/core_cm0plus.h **** #define SCB_VTOR_TBLOFF_Pos                 8U                                            /*!< SCB 
ARM GAS  C:\Users\DAVIDW~1\AppData\Local\Temp\ccImPayJ.s 			page 16


 417:Generated_Source\PSoC6\pdl\cmsis/include/core_cm0plus.h **** #define SCB_VTOR_TBLOFF_Msk                (0xFFFFFFUL << SCB_VTOR_TBLOFF_Pos)            /*!< SCB 
 418:Generated_Source\PSoC6\pdl\cmsis/include/core_cm0plus.h **** #endif
 419:Generated_Source\PSoC6\pdl\cmsis/include/core_cm0plus.h **** 
 420:Generated_Source\PSoC6\pdl\cmsis/include/core_cm0plus.h **** /* SCB Application Interrupt and Reset Control Register Definitions */
 421:Generated_Source\PSoC6\pdl\cmsis/include/core_cm0plus.h **** #define SCB_AIRCR_VECTKEY_Pos              16U                                            /*!< SCB 
 422:Generated_Source\PSoC6\pdl\cmsis/include/core_cm0plus.h **** #define SCB_AIRCR_VECTKEY_Msk              (0xFFFFUL << SCB_AIRCR_VECTKEY_Pos)            /*!< SCB 
 423:Generated_Source\PSoC6\pdl\cmsis/include/core_cm0plus.h **** 
 424:Generated_Source\PSoC6\pdl\cmsis/include/core_cm0plus.h **** #define SCB_AIRCR_VECTKEYSTAT_Pos          16U                                            /*!< SCB 
 425:Generated_Source\PSoC6\pdl\cmsis/include/core_cm0plus.h **** #define SCB_AIRCR_VECTKEYSTAT_Msk          (0xFFFFUL << SCB_AIRCR_VECTKEYSTAT_Pos)        /*!< SCB 
 426:Generated_Source\PSoC6\pdl\cmsis/include/core_cm0plus.h **** 
 427:Generated_Source\PSoC6\pdl\cmsis/include/core_cm0plus.h **** #define SCB_AIRCR_ENDIANESS_Pos            15U                                            /*!< SCB 
 428:Generated_Source\PSoC6\pdl\cmsis/include/core_cm0plus.h **** #define SCB_AIRCR_ENDIANESS_Msk            (1UL << SCB_AIRCR_ENDIANESS_Pos)               /*!< SCB 
 429:Generated_Source\PSoC6\pdl\cmsis/include/core_cm0plus.h **** 
 430:Generated_Source\PSoC6\pdl\cmsis/include/core_cm0plus.h **** #define SCB_AIRCR_SYSRESETREQ_Pos           2U                                            /*!< SCB 
 431:Generated_Source\PSoC6\pdl\cmsis/include/core_cm0plus.h **** #define SCB_AIRCR_SYSRESETREQ_Msk          (1UL << SCB_AIRCR_SYSRESETREQ_Pos)             /*!< SCB 
 432:Generated_Source\PSoC6\pdl\cmsis/include/core_cm0plus.h **** 
 433:Generated_Source\PSoC6\pdl\cmsis/include/core_cm0plus.h **** #define SCB_AIRCR_VECTCLRACTIVE_Pos         1U                                            /*!< SCB 
 434:Generated_Source\PSoC6\pdl\cmsis/include/core_cm0plus.h **** #define SCB_AIRCR_VECTCLRACTIVE_Msk        (1UL << SCB_AIRCR_VECTCLRACTIVE_Pos)           /*!< SCB 
 435:Generated_Source\PSoC6\pdl\cmsis/include/core_cm0plus.h **** 
 436:Generated_Source\PSoC6\pdl\cmsis/include/core_cm0plus.h **** /* SCB System Control Register Definitions */
 437:Generated_Source\PSoC6\pdl\cmsis/include/core_cm0plus.h **** #define SCB_SCR_SEVONPEND_Pos               4U                                            /*!< SCB 
 438:Generated_Source\PSoC6\pdl\cmsis/include/core_cm0plus.h **** #define SCB_SCR_SEVONPEND_Msk              (1UL << SCB_SCR_SEVONPEND_Pos)                 /*!< SCB 
 439:Generated_Source\PSoC6\pdl\cmsis/include/core_cm0plus.h **** 
 440:Generated_Source\PSoC6\pdl\cmsis/include/core_cm0plus.h **** #define SCB_SCR_SLEEPDEEP_Pos               2U                                            /*!< SCB 
 441:Generated_Source\PSoC6\pdl\cmsis/include/core_cm0plus.h **** #define SCB_SCR_SLEEPDEEP_Msk              (1UL << SCB_SCR_SLEEPDEEP_Pos)                 /*!< SCB 
 442:Generated_Source\PSoC6\pdl\cmsis/include/core_cm0plus.h **** 
 443:Generated_Source\PSoC6\pdl\cmsis/include/core_cm0plus.h **** #define SCB_SCR_SLEEPONEXIT_Pos             1U                                            /*!< SCB 
 444:Generated_Source\PSoC6\pdl\cmsis/include/core_cm0plus.h **** #define SCB_SCR_SLEEPONEXIT_Msk            (1UL << SCB_SCR_SLEEPONEXIT_Pos)               /*!< SCB 
 445:Generated_Source\PSoC6\pdl\cmsis/include/core_cm0plus.h **** 
 446:Generated_Source\PSoC6\pdl\cmsis/include/core_cm0plus.h **** /* SCB Configuration Control Register Definitions */
 447:Generated_Source\PSoC6\pdl\cmsis/include/core_cm0plus.h **** #define SCB_CCR_STKALIGN_Pos                9U                                            /*!< SCB 
 448:Generated_Source\PSoC6\pdl\cmsis/include/core_cm0plus.h **** #define SCB_CCR_STKALIGN_Msk               (1UL << SCB_CCR_STKALIGN_Pos)                  /*!< SCB 
 449:Generated_Source\PSoC6\pdl\cmsis/include/core_cm0plus.h **** 
 450:Generated_Source\PSoC6\pdl\cmsis/include/core_cm0plus.h **** #define SCB_CCR_UNALIGN_TRP_Pos             3U                                            /*!< SCB 
 451:Generated_Source\PSoC6\pdl\cmsis/include/core_cm0plus.h **** #define SCB_CCR_UNALIGN_TRP_Msk            (1UL << SCB_CCR_UNALIGN_TRP_Pos)               /*!< SCB 
 452:Generated_Source\PSoC6\pdl\cmsis/include/core_cm0plus.h **** 
 453:Generated_Source\PSoC6\pdl\cmsis/include/core_cm0plus.h **** /* SCB System Handler Control and State Register Definitions */
 454:Generated_Source\PSoC6\pdl\cmsis/include/core_cm0plus.h **** #define SCB_SHCSR_SVCALLPENDED_Pos         15U                                            /*!< SCB 
 455:Generated_Source\PSoC6\pdl\cmsis/include/core_cm0plus.h **** #define SCB_SHCSR_SVCALLPENDED_Msk         (1UL << SCB_SHCSR_SVCALLPENDED_Pos)            /*!< SCB 
 456:Generated_Source\PSoC6\pdl\cmsis/include/core_cm0plus.h **** 
 457:Generated_Source\PSoC6\pdl\cmsis/include/core_cm0plus.h **** /*@} end of group CMSIS_SCB */
 458:Generated_Source\PSoC6\pdl\cmsis/include/core_cm0plus.h **** 
 459:Generated_Source\PSoC6\pdl\cmsis/include/core_cm0plus.h **** 
 460:Generated_Source\PSoC6\pdl\cmsis/include/core_cm0plus.h **** /**
 461:Generated_Source\PSoC6\pdl\cmsis/include/core_cm0plus.h ****   \ingroup  CMSIS_core_register
 462:Generated_Source\PSoC6\pdl\cmsis/include/core_cm0plus.h ****   \defgroup CMSIS_SysTick     System Tick Timer (SysTick)
 463:Generated_Source\PSoC6\pdl\cmsis/include/core_cm0plus.h ****   \brief    Type definitions for the System Timer Registers.
 464:Generated_Source\PSoC6\pdl\cmsis/include/core_cm0plus.h ****   @{
 465:Generated_Source\PSoC6\pdl\cmsis/include/core_cm0plus.h ****  */
 466:Generated_Source\PSoC6\pdl\cmsis/include/core_cm0plus.h **** 
 467:Generated_Source\PSoC6\pdl\cmsis/include/core_cm0plus.h **** /**
 468:Generated_Source\PSoC6\pdl\cmsis/include/core_cm0plus.h ****   \brief  Structure type to access the System Timer (SysTick).
 469:Generated_Source\PSoC6\pdl\cmsis/include/core_cm0plus.h ****  */
 470:Generated_Source\PSoC6\pdl\cmsis/include/core_cm0plus.h **** typedef struct
 471:Generated_Source\PSoC6\pdl\cmsis/include/core_cm0plus.h **** {
 472:Generated_Source\PSoC6\pdl\cmsis/include/core_cm0plus.h ****   __IOM uint32_t CTRL;                   /*!< Offset: 0x000 (R/W)  SysTick Control and Status Regis
 473:Generated_Source\PSoC6\pdl\cmsis/include/core_cm0plus.h ****   __IOM uint32_t LOAD;                   /*!< Offset: 0x004 (R/W)  SysTick Reload Value Register */
ARM GAS  C:\Users\DAVIDW~1\AppData\Local\Temp\ccImPayJ.s 			page 17


 474:Generated_Source\PSoC6\pdl\cmsis/include/core_cm0plus.h ****   __IOM uint32_t VAL;                    /*!< Offset: 0x008 (R/W)  SysTick Current Value Register *
 475:Generated_Source\PSoC6\pdl\cmsis/include/core_cm0plus.h ****   __IM  uint32_t CALIB;                  /*!< Offset: 0x00C (R/ )  SysTick Calibration Register */
 476:Generated_Source\PSoC6\pdl\cmsis/include/core_cm0plus.h **** } SysTick_Type;
 477:Generated_Source\PSoC6\pdl\cmsis/include/core_cm0plus.h **** 
 478:Generated_Source\PSoC6\pdl\cmsis/include/core_cm0plus.h **** /* SysTick Control / Status Register Definitions */
 479:Generated_Source\PSoC6\pdl\cmsis/include/core_cm0plus.h **** #define SysTick_CTRL_COUNTFLAG_Pos         16U                                            /*!< SysT
 480:Generated_Source\PSoC6\pdl\cmsis/include/core_cm0plus.h **** #define SysTick_CTRL_COUNTFLAG_Msk         (1UL << SysTick_CTRL_COUNTFLAG_Pos)            /*!< SysT
 481:Generated_Source\PSoC6\pdl\cmsis/include/core_cm0plus.h **** 
 482:Generated_Source\PSoC6\pdl\cmsis/include/core_cm0plus.h **** #define SysTick_CTRL_CLKSOURCE_Pos          2U                                            /*!< SysT
 483:Generated_Source\PSoC6\pdl\cmsis/include/core_cm0plus.h **** #define SysTick_CTRL_CLKSOURCE_Msk         (1UL << SysTick_CTRL_CLKSOURCE_Pos)            /*!< SysT
 484:Generated_Source\PSoC6\pdl\cmsis/include/core_cm0plus.h **** 
 485:Generated_Source\PSoC6\pdl\cmsis/include/core_cm0plus.h **** #define SysTick_CTRL_TICKINT_Pos            1U                                            /*!< SysT
 486:Generated_Source\PSoC6\pdl\cmsis/include/core_cm0plus.h **** #define SysTick_CTRL_TICKINT_Msk           (1UL << SysTick_CTRL_TICKINT_Pos)              /*!< SysT
 487:Generated_Source\PSoC6\pdl\cmsis/include/core_cm0plus.h **** 
 488:Generated_Source\PSoC6\pdl\cmsis/include/core_cm0plus.h **** #define SysTick_CTRL_ENABLE_Pos             0U                                            /*!< SysT
 489:Generated_Source\PSoC6\pdl\cmsis/include/core_cm0plus.h **** #define SysTick_CTRL_ENABLE_Msk            (1UL /*<< SysTick_CTRL_ENABLE_Pos*/)           /*!< SysT
 490:Generated_Source\PSoC6\pdl\cmsis/include/core_cm0plus.h **** 
 491:Generated_Source\PSoC6\pdl\cmsis/include/core_cm0plus.h **** /* SysTick Reload Register Definitions */
 492:Generated_Source\PSoC6\pdl\cmsis/include/core_cm0plus.h **** #define SysTick_LOAD_RELOAD_Pos             0U                                            /*!< SysT
 493:Generated_Source\PSoC6\pdl\cmsis/include/core_cm0plus.h **** #define SysTick_LOAD_RELOAD_Msk            (0xFFFFFFUL /*<< SysTick_LOAD_RELOAD_Pos*/)    /*!< SysT
 494:Generated_Source\PSoC6\pdl\cmsis/include/core_cm0plus.h **** 
 495:Generated_Source\PSoC6\pdl\cmsis/include/core_cm0plus.h **** /* SysTick Current Register Definitions */
 496:Generated_Source\PSoC6\pdl\cmsis/include/core_cm0plus.h **** #define SysTick_VAL_CURRENT_Pos             0U                                            /*!< SysT
 497:Generated_Source\PSoC6\pdl\cmsis/include/core_cm0plus.h **** #define SysTick_VAL_CURRENT_Msk            (0xFFFFFFUL /*<< SysTick_VAL_CURRENT_Pos*/)    /*!< SysT
 498:Generated_Source\PSoC6\pdl\cmsis/include/core_cm0plus.h **** 
 499:Generated_Source\PSoC6\pdl\cmsis/include/core_cm0plus.h **** /* SysTick Calibration Register Definitions */
 500:Generated_Source\PSoC6\pdl\cmsis/include/core_cm0plus.h **** #define SysTick_CALIB_NOREF_Pos            31U                                            /*!< SysT
 501:Generated_Source\PSoC6\pdl\cmsis/include/core_cm0plus.h **** #define SysTick_CALIB_NOREF_Msk            (1UL << SysTick_CALIB_NOREF_Pos)               /*!< SysT
 502:Generated_Source\PSoC6\pdl\cmsis/include/core_cm0plus.h **** 
 503:Generated_Source\PSoC6\pdl\cmsis/include/core_cm0plus.h **** #define SysTick_CALIB_SKEW_Pos             30U                                            /*!< SysT
 504:Generated_Source\PSoC6\pdl\cmsis/include/core_cm0plus.h **** #define SysTick_CALIB_SKEW_Msk             (1UL << SysTick_CALIB_SKEW_Pos)                /*!< SysT
 505:Generated_Source\PSoC6\pdl\cmsis/include/core_cm0plus.h **** 
 506:Generated_Source\PSoC6\pdl\cmsis/include/core_cm0plus.h **** #define SysTick_CALIB_TENMS_Pos             0U                                            /*!< SysT
 507:Generated_Source\PSoC6\pdl\cmsis/include/core_cm0plus.h **** #define SysTick_CALIB_TENMS_Msk            (0xFFFFFFUL /*<< SysTick_CALIB_TENMS_Pos*/)    /*!< SysT
 508:Generated_Source\PSoC6\pdl\cmsis/include/core_cm0plus.h **** 
 509:Generated_Source\PSoC6\pdl\cmsis/include/core_cm0plus.h **** /*@} end of group CMSIS_SysTick */
 510:Generated_Source\PSoC6\pdl\cmsis/include/core_cm0plus.h **** 
 511:Generated_Source\PSoC6\pdl\cmsis/include/core_cm0plus.h **** #if defined (__MPU_PRESENT) && (__MPU_PRESENT == 1U)
 512:Generated_Source\PSoC6\pdl\cmsis/include/core_cm0plus.h **** /**
 513:Generated_Source\PSoC6\pdl\cmsis/include/core_cm0plus.h ****   \ingroup  CMSIS_core_register
 514:Generated_Source\PSoC6\pdl\cmsis/include/core_cm0plus.h ****   \defgroup CMSIS_MPU     Memory Protection Unit (MPU)
 515:Generated_Source\PSoC6\pdl\cmsis/include/core_cm0plus.h ****   \brief    Type definitions for the Memory Protection Unit (MPU)
 516:Generated_Source\PSoC6\pdl\cmsis/include/core_cm0plus.h ****   @{
 517:Generated_Source\PSoC6\pdl\cmsis/include/core_cm0plus.h ****  */
 518:Generated_Source\PSoC6\pdl\cmsis/include/core_cm0plus.h **** 
 519:Generated_Source\PSoC6\pdl\cmsis/include/core_cm0plus.h **** /**
 520:Generated_Source\PSoC6\pdl\cmsis/include/core_cm0plus.h ****   \brief  Structure type to access the Memory Protection Unit (MPU).
 521:Generated_Source\PSoC6\pdl\cmsis/include/core_cm0plus.h ****  */
 522:Generated_Source\PSoC6\pdl\cmsis/include/core_cm0plus.h **** typedef struct
 523:Generated_Source\PSoC6\pdl\cmsis/include/core_cm0plus.h **** {
 524:Generated_Source\PSoC6\pdl\cmsis/include/core_cm0plus.h ****   __IM  uint32_t TYPE;                   /*!< Offset: 0x000 (R/ )  MPU Type Register */
 525:Generated_Source\PSoC6\pdl\cmsis/include/core_cm0plus.h ****   __IOM uint32_t CTRL;                   /*!< Offset: 0x004 (R/W)  MPU Control Register */
 526:Generated_Source\PSoC6\pdl\cmsis/include/core_cm0plus.h ****   __IOM uint32_t RNR;                    /*!< Offset: 0x008 (R/W)  MPU Region RNRber Register */
 527:Generated_Source\PSoC6\pdl\cmsis/include/core_cm0plus.h ****   __IOM uint32_t RBAR;                   /*!< Offset: 0x00C (R/W)  MPU Region Base Address Register
 528:Generated_Source\PSoC6\pdl\cmsis/include/core_cm0plus.h ****   __IOM uint32_t RASR;                   /*!< Offset: 0x010 (R/W)  MPU Region Attribute and Size Re
 529:Generated_Source\PSoC6\pdl\cmsis/include/core_cm0plus.h **** } MPU_Type;
 530:Generated_Source\PSoC6\pdl\cmsis/include/core_cm0plus.h **** 
ARM GAS  C:\Users\DAVIDW~1\AppData\Local\Temp\ccImPayJ.s 			page 18


 531:Generated_Source\PSoC6\pdl\cmsis/include/core_cm0plus.h **** /* MPU Type Register Definitions */
 532:Generated_Source\PSoC6\pdl\cmsis/include/core_cm0plus.h **** #define MPU_TYPE_IREGION_Pos               16U                                            /*!< MPU 
 533:Generated_Source\PSoC6\pdl\cmsis/include/core_cm0plus.h **** #define MPU_TYPE_IREGION_Msk               (0xFFUL << MPU_TYPE_IREGION_Pos)               /*!< MPU 
 534:Generated_Source\PSoC6\pdl\cmsis/include/core_cm0plus.h **** 
 535:Generated_Source\PSoC6\pdl\cmsis/include/core_cm0plus.h **** #define MPU_TYPE_DREGION_Pos                8U                                            /*!< MPU 
 536:Generated_Source\PSoC6\pdl\cmsis/include/core_cm0plus.h **** #define MPU_TYPE_DREGION_Msk               (0xFFUL << MPU_TYPE_DREGION_Pos)               /*!< MPU 
 537:Generated_Source\PSoC6\pdl\cmsis/include/core_cm0plus.h **** 
 538:Generated_Source\PSoC6\pdl\cmsis/include/core_cm0plus.h **** #define MPU_TYPE_SEPARATE_Pos               0U                                            /*!< MPU 
 539:Generated_Source\PSoC6\pdl\cmsis/include/core_cm0plus.h **** #define MPU_TYPE_SEPARATE_Msk              (1UL /*<< MPU_TYPE_SEPARATE_Pos*/)             /*!< MPU 
 540:Generated_Source\PSoC6\pdl\cmsis/include/core_cm0plus.h **** 
 541:Generated_Source\PSoC6\pdl\cmsis/include/core_cm0plus.h **** /* MPU Control Register Definitions */
 542:Generated_Source\PSoC6\pdl\cmsis/include/core_cm0plus.h **** #define MPU_CTRL_PRIVDEFENA_Pos             2U                                            /*!< MPU 
 543:Generated_Source\PSoC6\pdl\cmsis/include/core_cm0plus.h **** #define MPU_CTRL_PRIVDEFENA_Msk            (1UL << MPU_CTRL_PRIVDEFENA_Pos)               /*!< MPU 
 544:Generated_Source\PSoC6\pdl\cmsis/include/core_cm0plus.h **** 
 545:Generated_Source\PSoC6\pdl\cmsis/include/core_cm0plus.h **** #define MPU_CTRL_HFNMIENA_Pos               1U                                            /*!< MPU 
 546:Generated_Source\PSoC6\pdl\cmsis/include/core_cm0plus.h **** #define MPU_CTRL_HFNMIENA_Msk              (1UL << MPU_CTRL_HFNMIENA_Pos)                 /*!< MPU 
 547:Generated_Source\PSoC6\pdl\cmsis/include/core_cm0plus.h **** 
 548:Generated_Source\PSoC6\pdl\cmsis/include/core_cm0plus.h **** #define MPU_CTRL_ENABLE_Pos                 0U                                            /*!< MPU 
 549:Generated_Source\PSoC6\pdl\cmsis/include/core_cm0plus.h **** #define MPU_CTRL_ENABLE_Msk                (1UL /*<< MPU_CTRL_ENABLE_Pos*/)               /*!< MPU 
 550:Generated_Source\PSoC6\pdl\cmsis/include/core_cm0plus.h **** 
 551:Generated_Source\PSoC6\pdl\cmsis/include/core_cm0plus.h **** /* MPU Region Number Register Definitions */
 552:Generated_Source\PSoC6\pdl\cmsis/include/core_cm0plus.h **** #define MPU_RNR_REGION_Pos                  0U                                            /*!< MPU 
 553:Generated_Source\PSoC6\pdl\cmsis/include/core_cm0plus.h **** #define MPU_RNR_REGION_Msk                 (0xFFUL /*<< MPU_RNR_REGION_Pos*/)             /*!< MPU 
 554:Generated_Source\PSoC6\pdl\cmsis/include/core_cm0plus.h **** 
 555:Generated_Source\PSoC6\pdl\cmsis/include/core_cm0plus.h **** /* MPU Region Base Address Register Definitions */
 556:Generated_Source\PSoC6\pdl\cmsis/include/core_cm0plus.h **** #define MPU_RBAR_ADDR_Pos                   8U                                            /*!< MPU 
 557:Generated_Source\PSoC6\pdl\cmsis/include/core_cm0plus.h **** #define MPU_RBAR_ADDR_Msk                  (0xFFFFFFUL << MPU_RBAR_ADDR_Pos)              /*!< MPU 
 558:Generated_Source\PSoC6\pdl\cmsis/include/core_cm0plus.h **** 
 559:Generated_Source\PSoC6\pdl\cmsis/include/core_cm0plus.h **** #define MPU_RBAR_VALID_Pos                  4U                                            /*!< MPU 
 560:Generated_Source\PSoC6\pdl\cmsis/include/core_cm0plus.h **** #define MPU_RBAR_VALID_Msk                 (1UL << MPU_RBAR_VALID_Pos)                    /*!< MPU 
 561:Generated_Source\PSoC6\pdl\cmsis/include/core_cm0plus.h **** 
 562:Generated_Source\PSoC6\pdl\cmsis/include/core_cm0plus.h **** #define MPU_RBAR_REGION_Pos                 0U                                            /*!< MPU 
 563:Generated_Source\PSoC6\pdl\cmsis/include/core_cm0plus.h **** #define MPU_RBAR_REGION_Msk                (0xFUL /*<< MPU_RBAR_REGION_Pos*/)             /*!< MPU 
 564:Generated_Source\PSoC6\pdl\cmsis/include/core_cm0plus.h **** 
 565:Generated_Source\PSoC6\pdl\cmsis/include/core_cm0plus.h **** /* MPU Region Attribute and Size Register Definitions */
 566:Generated_Source\PSoC6\pdl\cmsis/include/core_cm0plus.h **** #define MPU_RASR_ATTRS_Pos                 16U                                            /*!< MPU 
 567:Generated_Source\PSoC6\pdl\cmsis/include/core_cm0plus.h **** #define MPU_RASR_ATTRS_Msk                 (0xFFFFUL << MPU_RASR_ATTRS_Pos)               /*!< MPU 
 568:Generated_Source\PSoC6\pdl\cmsis/include/core_cm0plus.h **** 
 569:Generated_Source\PSoC6\pdl\cmsis/include/core_cm0plus.h **** #define MPU_RASR_XN_Pos                    28U                                            /*!< MPU 
 570:Generated_Source\PSoC6\pdl\cmsis/include/core_cm0plus.h **** #define MPU_RASR_XN_Msk                    (1UL << MPU_RASR_XN_Pos)                       /*!< MPU 
 571:Generated_Source\PSoC6\pdl\cmsis/include/core_cm0plus.h **** 
 572:Generated_Source\PSoC6\pdl\cmsis/include/core_cm0plus.h **** #define MPU_RASR_AP_Pos                    24U                                            /*!< MPU 
 573:Generated_Source\PSoC6\pdl\cmsis/include/core_cm0plus.h **** #define MPU_RASR_AP_Msk                    (0x7UL << MPU_RASR_AP_Pos)                     /*!< MPU 
 574:Generated_Source\PSoC6\pdl\cmsis/include/core_cm0plus.h **** 
 575:Generated_Source\PSoC6\pdl\cmsis/include/core_cm0plus.h **** #define MPU_RASR_TEX_Pos                   19U                                            /*!< MPU 
 576:Generated_Source\PSoC6\pdl\cmsis/include/core_cm0plus.h **** #define MPU_RASR_TEX_Msk                   (0x7UL << MPU_RASR_TEX_Pos)                    /*!< MPU 
 577:Generated_Source\PSoC6\pdl\cmsis/include/core_cm0plus.h **** 
 578:Generated_Source\PSoC6\pdl\cmsis/include/core_cm0plus.h **** #define MPU_RASR_S_Pos                     18U                                            /*!< MPU 
 579:Generated_Source\PSoC6\pdl\cmsis/include/core_cm0plus.h **** #define MPU_RASR_S_Msk                     (1UL << MPU_RASR_S_Pos)                        /*!< MPU 
 580:Generated_Source\PSoC6\pdl\cmsis/include/core_cm0plus.h **** 
 581:Generated_Source\PSoC6\pdl\cmsis/include/core_cm0plus.h **** #define MPU_RASR_C_Pos                     17U                                            /*!< MPU 
 582:Generated_Source\PSoC6\pdl\cmsis/include/core_cm0plus.h **** #define MPU_RASR_C_Msk                     (1UL << MPU_RASR_C_Pos)                        /*!< MPU 
 583:Generated_Source\PSoC6\pdl\cmsis/include/core_cm0plus.h **** 
 584:Generated_Source\PSoC6\pdl\cmsis/include/core_cm0plus.h **** #define MPU_RASR_B_Pos                     16U                                            /*!< MPU 
 585:Generated_Source\PSoC6\pdl\cmsis/include/core_cm0plus.h **** #define MPU_RASR_B_Msk                     (1UL << MPU_RASR_B_Pos)                        /*!< MPU 
 586:Generated_Source\PSoC6\pdl\cmsis/include/core_cm0plus.h **** 
 587:Generated_Source\PSoC6\pdl\cmsis/include/core_cm0plus.h **** #define MPU_RASR_SRD_Pos                    8U                                            /*!< MPU 
ARM GAS  C:\Users\DAVIDW~1\AppData\Local\Temp\ccImPayJ.s 			page 19


 588:Generated_Source\PSoC6\pdl\cmsis/include/core_cm0plus.h **** #define MPU_RASR_SRD_Msk                   (0xFFUL << MPU_RASR_SRD_Pos)                   /*!< MPU 
 589:Generated_Source\PSoC6\pdl\cmsis/include/core_cm0plus.h **** 
 590:Generated_Source\PSoC6\pdl\cmsis/include/core_cm0plus.h **** #define MPU_RASR_SIZE_Pos                   1U                                            /*!< MPU 
 591:Generated_Source\PSoC6\pdl\cmsis/include/core_cm0plus.h **** #define MPU_RASR_SIZE_Msk                  (0x1FUL << MPU_RASR_SIZE_Pos)                  /*!< MPU 
 592:Generated_Source\PSoC6\pdl\cmsis/include/core_cm0plus.h **** 
 593:Generated_Source\PSoC6\pdl\cmsis/include/core_cm0plus.h **** #define MPU_RASR_ENABLE_Pos                 0U                                            /*!< MPU 
 594:Generated_Source\PSoC6\pdl\cmsis/include/core_cm0plus.h **** #define MPU_RASR_ENABLE_Msk                (1UL /*<< MPU_RASR_ENABLE_Pos*/)               /*!< MPU 
 595:Generated_Source\PSoC6\pdl\cmsis/include/core_cm0plus.h **** 
 596:Generated_Source\PSoC6\pdl\cmsis/include/core_cm0plus.h **** /*@} end of group CMSIS_MPU */
 597:Generated_Source\PSoC6\pdl\cmsis/include/core_cm0plus.h **** #endif
 598:Generated_Source\PSoC6\pdl\cmsis/include/core_cm0plus.h **** 
 599:Generated_Source\PSoC6\pdl\cmsis/include/core_cm0plus.h **** 
 600:Generated_Source\PSoC6\pdl\cmsis/include/core_cm0plus.h **** /**
 601:Generated_Source\PSoC6\pdl\cmsis/include/core_cm0plus.h ****   \ingroup  CMSIS_core_register
 602:Generated_Source\PSoC6\pdl\cmsis/include/core_cm0plus.h ****   \defgroup CMSIS_CoreDebug       Core Debug Registers (CoreDebug)
 603:Generated_Source\PSoC6\pdl\cmsis/include/core_cm0plus.h ****   \brief    Cortex-M0+ Core Debug Registers (DCB registers, SHCSR, and DFSR) are only accessible ov
 604:Generated_Source\PSoC6\pdl\cmsis/include/core_cm0plus.h ****             Therefore they are not covered by the Cortex-M0+ header file.
 605:Generated_Source\PSoC6\pdl\cmsis/include/core_cm0plus.h ****   @{
 606:Generated_Source\PSoC6\pdl\cmsis/include/core_cm0plus.h ****  */
 607:Generated_Source\PSoC6\pdl\cmsis/include/core_cm0plus.h **** /*@} end of group CMSIS_CoreDebug */
 608:Generated_Source\PSoC6\pdl\cmsis/include/core_cm0plus.h **** 
 609:Generated_Source\PSoC6\pdl\cmsis/include/core_cm0plus.h **** 
 610:Generated_Source\PSoC6\pdl\cmsis/include/core_cm0plus.h **** /**
 611:Generated_Source\PSoC6\pdl\cmsis/include/core_cm0plus.h ****   \ingroup    CMSIS_core_register
 612:Generated_Source\PSoC6\pdl\cmsis/include/core_cm0plus.h ****   \defgroup   CMSIS_core_bitfield     Core register bit field macros
 613:Generated_Source\PSoC6\pdl\cmsis/include/core_cm0plus.h ****   \brief      Macros for use with bit field definitions (xxx_Pos, xxx_Msk).
 614:Generated_Source\PSoC6\pdl\cmsis/include/core_cm0plus.h ****   @{
 615:Generated_Source\PSoC6\pdl\cmsis/include/core_cm0plus.h ****  */
 616:Generated_Source\PSoC6\pdl\cmsis/include/core_cm0plus.h **** 
 617:Generated_Source\PSoC6\pdl\cmsis/include/core_cm0plus.h **** /**
 618:Generated_Source\PSoC6\pdl\cmsis/include/core_cm0plus.h ****   \brief   Mask and shift a bit field value for use in a register bit range.
 619:Generated_Source\PSoC6\pdl\cmsis/include/core_cm0plus.h ****   \param[in] field  Name of the register bit field.
 620:Generated_Source\PSoC6\pdl\cmsis/include/core_cm0plus.h ****   \param[in] value  Value of the bit field. This parameter is interpreted as an uint32_t type.
 621:Generated_Source\PSoC6\pdl\cmsis/include/core_cm0plus.h ****   \return           Masked and shifted value.
 622:Generated_Source\PSoC6\pdl\cmsis/include/core_cm0plus.h **** */
 623:Generated_Source\PSoC6\pdl\cmsis/include/core_cm0plus.h **** #define _VAL2FLD(field, value)    (((uint32_t)(value) << field ## _Pos) & field ## _Msk)
 624:Generated_Source\PSoC6\pdl\cmsis/include/core_cm0plus.h **** 
 625:Generated_Source\PSoC6\pdl\cmsis/include/core_cm0plus.h **** /**
 626:Generated_Source\PSoC6\pdl\cmsis/include/core_cm0plus.h ****   \brief     Mask and shift a register value to extract a bit filed value.
 627:Generated_Source\PSoC6\pdl\cmsis/include/core_cm0plus.h ****   \param[in] field  Name of the register bit field.
 628:Generated_Source\PSoC6\pdl\cmsis/include/core_cm0plus.h ****   \param[in] value  Value of register. This parameter is interpreted as an uint32_t type.
 629:Generated_Source\PSoC6\pdl\cmsis/include/core_cm0plus.h ****   \return           Masked and shifted bit field value.
 630:Generated_Source\PSoC6\pdl\cmsis/include/core_cm0plus.h **** */
 631:Generated_Source\PSoC6\pdl\cmsis/include/core_cm0plus.h **** #define _FLD2VAL(field, value)    (((uint32_t)(value) & field ## _Msk) >> field ## _Pos)
 632:Generated_Source\PSoC6\pdl\cmsis/include/core_cm0plus.h **** 
 633:Generated_Source\PSoC6\pdl\cmsis/include/core_cm0plus.h **** /*@} end of group CMSIS_core_bitfield */
 634:Generated_Source\PSoC6\pdl\cmsis/include/core_cm0plus.h **** 
 635:Generated_Source\PSoC6\pdl\cmsis/include/core_cm0plus.h **** 
 636:Generated_Source\PSoC6\pdl\cmsis/include/core_cm0plus.h **** /**
 637:Generated_Source\PSoC6\pdl\cmsis/include/core_cm0plus.h ****   \ingroup    CMSIS_core_register
 638:Generated_Source\PSoC6\pdl\cmsis/include/core_cm0plus.h ****   \defgroup   CMSIS_core_base     Core Definitions
 639:Generated_Source\PSoC6\pdl\cmsis/include/core_cm0plus.h ****   \brief      Definitions for base addresses, unions, and structures.
 640:Generated_Source\PSoC6\pdl\cmsis/include/core_cm0plus.h ****   @{
 641:Generated_Source\PSoC6\pdl\cmsis/include/core_cm0plus.h ****  */
 642:Generated_Source\PSoC6\pdl\cmsis/include/core_cm0plus.h **** 
 643:Generated_Source\PSoC6\pdl\cmsis/include/core_cm0plus.h **** /* Memory mapping of Core Hardware */
 644:Generated_Source\PSoC6\pdl\cmsis/include/core_cm0plus.h **** #define SCS_BASE            (0xE000E000UL)                            /*!< System Control Space Bas
ARM GAS  C:\Users\DAVIDW~1\AppData\Local\Temp\ccImPayJ.s 			page 20


 645:Generated_Source\PSoC6\pdl\cmsis/include/core_cm0plus.h **** #define SysTick_BASE        (SCS_BASE +  0x0010UL)                    /*!< SysTick Base Address */
 646:Generated_Source\PSoC6\pdl\cmsis/include/core_cm0plus.h **** #define NVIC_BASE           (SCS_BASE +  0x0100UL)                    /*!< NVIC Base Address */
 647:Generated_Source\PSoC6\pdl\cmsis/include/core_cm0plus.h **** #define SCB_BASE            (SCS_BASE +  0x0D00UL)                    /*!< System Control Block Bas
 648:Generated_Source\PSoC6\pdl\cmsis/include/core_cm0plus.h **** 
 649:Generated_Source\PSoC6\pdl\cmsis/include/core_cm0plus.h **** #define SCB                 ((SCB_Type       *)     SCB_BASE      )   /*!< SCB configuration struct
 650:Generated_Source\PSoC6\pdl\cmsis/include/core_cm0plus.h **** #define SysTick             ((SysTick_Type   *)     SysTick_BASE  )   /*!< SysTick configuration st
 651:Generated_Source\PSoC6\pdl\cmsis/include/core_cm0plus.h **** #define NVIC                ((NVIC_Type      *)     NVIC_BASE     )   /*!< NVIC configuration struc
 652:Generated_Source\PSoC6\pdl\cmsis/include/core_cm0plus.h **** 
 653:Generated_Source\PSoC6\pdl\cmsis/include/core_cm0plus.h **** #if defined (__MPU_PRESENT) && (__MPU_PRESENT == 1U)
 654:Generated_Source\PSoC6\pdl\cmsis/include/core_cm0plus.h ****   #define MPU_BASE          (SCS_BASE +  0x0D90UL)                    /*!< Memory Protection Unit *
 655:Generated_Source\PSoC6\pdl\cmsis/include/core_cm0plus.h ****   #define MPU               ((MPU_Type       *)     MPU_BASE      )   /*!< Memory Protection Unit *
 656:Generated_Source\PSoC6\pdl\cmsis/include/core_cm0plus.h **** #endif
 657:Generated_Source\PSoC6\pdl\cmsis/include/core_cm0plus.h **** 
 658:Generated_Source\PSoC6\pdl\cmsis/include/core_cm0plus.h **** /*@} */
 659:Generated_Source\PSoC6\pdl\cmsis/include/core_cm0plus.h **** 
 660:Generated_Source\PSoC6\pdl\cmsis/include/core_cm0plus.h **** 
 661:Generated_Source\PSoC6\pdl\cmsis/include/core_cm0plus.h **** 
 662:Generated_Source\PSoC6\pdl\cmsis/include/core_cm0plus.h **** /*******************************************************************************
 663:Generated_Source\PSoC6\pdl\cmsis/include/core_cm0plus.h ****  *                Hardware Abstraction Layer
 664:Generated_Source\PSoC6\pdl\cmsis/include/core_cm0plus.h ****   Core Function Interface contains:
 665:Generated_Source\PSoC6\pdl\cmsis/include/core_cm0plus.h ****   - Core NVIC Functions
 666:Generated_Source\PSoC6\pdl\cmsis/include/core_cm0plus.h ****   - Core SysTick Functions
 667:Generated_Source\PSoC6\pdl\cmsis/include/core_cm0plus.h ****   - Core Register Access Functions
 668:Generated_Source\PSoC6\pdl\cmsis/include/core_cm0plus.h ****  ******************************************************************************/
 669:Generated_Source\PSoC6\pdl\cmsis/include/core_cm0plus.h **** /**
 670:Generated_Source\PSoC6\pdl\cmsis/include/core_cm0plus.h ****   \defgroup CMSIS_Core_FunctionInterface Functions and Instructions Reference
 671:Generated_Source\PSoC6\pdl\cmsis/include/core_cm0plus.h **** */
 672:Generated_Source\PSoC6\pdl\cmsis/include/core_cm0plus.h **** 
 673:Generated_Source\PSoC6\pdl\cmsis/include/core_cm0plus.h **** 
 674:Generated_Source\PSoC6\pdl\cmsis/include/core_cm0plus.h **** 
 675:Generated_Source\PSoC6\pdl\cmsis/include/core_cm0plus.h **** /* ##########################   NVIC functions  #################################### */
 676:Generated_Source\PSoC6\pdl\cmsis/include/core_cm0plus.h **** /**
 677:Generated_Source\PSoC6\pdl\cmsis/include/core_cm0plus.h ****   \ingroup  CMSIS_Core_FunctionInterface
 678:Generated_Source\PSoC6\pdl\cmsis/include/core_cm0plus.h ****   \defgroup CMSIS_Core_NVICFunctions NVIC Functions
 679:Generated_Source\PSoC6\pdl\cmsis/include/core_cm0plus.h ****   \brief    Functions that manage interrupts and exceptions via the NVIC.
 680:Generated_Source\PSoC6\pdl\cmsis/include/core_cm0plus.h ****   @{
 681:Generated_Source\PSoC6\pdl\cmsis/include/core_cm0plus.h ****  */
 682:Generated_Source\PSoC6\pdl\cmsis/include/core_cm0plus.h **** 
 683:Generated_Source\PSoC6\pdl\cmsis/include/core_cm0plus.h **** #ifndef CMSIS_NVIC_VIRTUAL
 684:Generated_Source\PSoC6\pdl\cmsis/include/core_cm0plus.h **** /*#define NVIC_SetPriorityGrouping    __NVIC_SetPriorityGrouping   not available for Cortex-M0+ */
 685:Generated_Source\PSoC6\pdl\cmsis/include/core_cm0plus.h **** /*#define NVIC_GetPriorityGrouping    __NVIC_GetPriorityGrouping   not available for Cortex-M0+ */
 686:Generated_Source\PSoC6\pdl\cmsis/include/core_cm0plus.h ****   #define NVIC_EnableIRQ              __NVIC_EnableIRQ
 687:Generated_Source\PSoC6\pdl\cmsis/include/core_cm0plus.h ****   #define NVIC_GetEnableIRQ           __NVIC_GetEnableIRQ
 688:Generated_Source\PSoC6\pdl\cmsis/include/core_cm0plus.h ****   #define NVIC_DisableIRQ             __NVIC_DisableIRQ
 689:Generated_Source\PSoC6\pdl\cmsis/include/core_cm0plus.h ****   #define NVIC_GetPendingIRQ          __NVIC_GetPendingIRQ
 690:Generated_Source\PSoC6\pdl\cmsis/include/core_cm0plus.h ****   #define NVIC_SetPendingIRQ          __NVIC_SetPendingIRQ
 691:Generated_Source\PSoC6\pdl\cmsis/include/core_cm0plus.h ****   #define NVIC_ClearPendingIRQ        __NVIC_ClearPendingIRQ
 692:Generated_Source\PSoC6\pdl\cmsis/include/core_cm0plus.h **** /*#define NVIC_GetActive              __NVIC_GetActive             not available for Cortex-M0+ */
 693:Generated_Source\PSoC6\pdl\cmsis/include/core_cm0plus.h ****   #define NVIC_SetPriority            __NVIC_SetPriority
 694:Generated_Source\PSoC6\pdl\cmsis/include/core_cm0plus.h ****   #define NVIC_GetPriority            __NVIC_GetPriority
 695:Generated_Source\PSoC6\pdl\cmsis/include/core_cm0plus.h **** #endif /* CMSIS_NVIC_VIRTUAL */
 696:Generated_Source\PSoC6\pdl\cmsis/include/core_cm0plus.h **** 
 697:Generated_Source\PSoC6\pdl\cmsis/include/core_cm0plus.h **** #ifndef CMSIS_VECTAB_VIRTUAL
 698:Generated_Source\PSoC6\pdl\cmsis/include/core_cm0plus.h ****   #define NVIC_SetVector              __NVIC_SetVector
 699:Generated_Source\PSoC6\pdl\cmsis/include/core_cm0plus.h ****   #define NVIC_GetVector              __NVIC_GetVector
 700:Generated_Source\PSoC6\pdl\cmsis/include/core_cm0plus.h **** #endif  /* (CMSIS_VECTAB_VIRTUAL) */
 701:Generated_Source\PSoC6\pdl\cmsis/include/core_cm0plus.h **** 
ARM GAS  C:\Users\DAVIDW~1\AppData\Local\Temp\ccImPayJ.s 			page 21


 702:Generated_Source\PSoC6\pdl\cmsis/include/core_cm0plus.h **** #define NVIC_USER_IRQ_OFFSET          16
 703:Generated_Source\PSoC6\pdl\cmsis/include/core_cm0plus.h **** 
 704:Generated_Source\PSoC6\pdl\cmsis/include/core_cm0plus.h **** 
 705:Generated_Source\PSoC6\pdl\cmsis/include/core_cm0plus.h **** /* Interrupt Priorities are WORD accessible only under ARMv6M                   */
 706:Generated_Source\PSoC6\pdl\cmsis/include/core_cm0plus.h **** /* The following MACROS handle generation of the register offset and byte masks */
 707:Generated_Source\PSoC6\pdl\cmsis/include/core_cm0plus.h **** #define _BIT_SHIFT(IRQn)         (  ((((uint32_t)(int32_t)(IRQn))         )      &  0x03UL) * 8UL)
 708:Generated_Source\PSoC6\pdl\cmsis/include/core_cm0plus.h **** #define _SHP_IDX(IRQn)           ( (((((uint32_t)(int32_t)(IRQn)) & 0x0FUL)-8UL) >>    2UL)      )
 709:Generated_Source\PSoC6\pdl\cmsis/include/core_cm0plus.h **** #define _IP_IDX(IRQn)            (   (((uint32_t)(int32_t)(IRQn))                >>    2UL)      )
 710:Generated_Source\PSoC6\pdl\cmsis/include/core_cm0plus.h **** 
 711:Generated_Source\PSoC6\pdl\cmsis/include/core_cm0plus.h **** 
 712:Generated_Source\PSoC6\pdl\cmsis/include/core_cm0plus.h **** /**
 713:Generated_Source\PSoC6\pdl\cmsis/include/core_cm0plus.h ****   \brief   Enable Interrupt
 714:Generated_Source\PSoC6\pdl\cmsis/include/core_cm0plus.h ****   \details Enables a device specific interrupt in the NVIC interrupt controller.
 715:Generated_Source\PSoC6\pdl\cmsis/include/core_cm0plus.h ****   \param [in]      IRQn  Device specific interrupt number.
 716:Generated_Source\PSoC6\pdl\cmsis/include/core_cm0plus.h ****   \note    IRQn must not be negative.
 717:Generated_Source\PSoC6\pdl\cmsis/include/core_cm0plus.h ****  */
 718:Generated_Source\PSoC6\pdl\cmsis/include/core_cm0plus.h **** __STATIC_INLINE void __NVIC_EnableIRQ(IRQn_Type IRQn)
 719:Generated_Source\PSoC6\pdl\cmsis/include/core_cm0plus.h **** {
 720:Generated_Source\PSoC6\pdl\cmsis/include/core_cm0plus.h ****   if ((int32_t)(IRQn) >= 0)
  97              		.loc 3 720 0
  98 0028 002A     		cmp	r2, #0
  99 002a 05DB     		blt	.L6
 721:Generated_Source\PSoC6\pdl\cmsis/include/core_cm0plus.h ****   {
 722:Generated_Source\PSoC6\pdl\cmsis/include/core_cm0plus.h ****     NVIC->ISER[0U] = (uint32_t)(1UL << (((uint32_t)(int32_t)IRQn) & 0x1FUL));
 100              		.loc 3 722 0
 101 002c 1F23     		movs	r3, #31
 102 002e 1A40     		ands	r2, r3
 103              	.LVL4:
 104 0030 1E3B     		subs	r3, r3, #30
 105 0032 9340     		lsls	r3, r3, r2
 106 0034 0A4A     		ldr	r2, .L7+24
 107 0036 1360     		str	r3, [r2]
 108              	.L6:
 109              	.LVL5:
 110              	.LBE7:
 111              	.LBE6:
 112              	.LBB8:
 113              	.LBB9:
 114              		.file 4 "Generated_Source\\PSoC6\\pdl\\drivers/peripheral/scb/cy_scb_ezi2c.h"
   1:Generated_Source\PSoC6\pdl\drivers/peripheral/scb/cy_scb_ezi2c.h **** /***************************************************************************//**
   2:Generated_Source\PSoC6\pdl\drivers/peripheral/scb/cy_scb_ezi2c.h **** * \file cy_scb_ezi2c.h
   3:Generated_Source\PSoC6\pdl\drivers/peripheral/scb/cy_scb_ezi2c.h **** * \version 2.10
   4:Generated_Source\PSoC6\pdl\drivers/peripheral/scb/cy_scb_ezi2c.h **** *
   5:Generated_Source\PSoC6\pdl\drivers/peripheral/scb/cy_scb_ezi2c.h **** * Provides EZI2C API declarations of the SCB driver.
   6:Generated_Source\PSoC6\pdl\drivers/peripheral/scb/cy_scb_ezi2c.h **** *
   7:Generated_Source\PSoC6\pdl\drivers/peripheral/scb/cy_scb_ezi2c.h **** ********************************************************************************
   8:Generated_Source\PSoC6\pdl\drivers/peripheral/scb/cy_scb_ezi2c.h **** * \copyright
   9:Generated_Source\PSoC6\pdl\drivers/peripheral/scb/cy_scb_ezi2c.h **** * Copyright 2016-2018, Cypress Semiconductor Corporation.  All rights reserved.
  10:Generated_Source\PSoC6\pdl\drivers/peripheral/scb/cy_scb_ezi2c.h **** * You may use this file only in accordance with the license, terms, conditions,
  11:Generated_Source\PSoC6\pdl\drivers/peripheral/scb/cy_scb_ezi2c.h **** * disclaimers, and limitations in the end user license agreement accompanying
  12:Generated_Source\PSoC6\pdl\drivers/peripheral/scb/cy_scb_ezi2c.h **** * the software package with which this file was provided.
  13:Generated_Source\PSoC6\pdl\drivers/peripheral/scb/cy_scb_ezi2c.h **** *******************************************************************************/
  14:Generated_Source\PSoC6\pdl\drivers/peripheral/scb/cy_scb_ezi2c.h **** 
  15:Generated_Source\PSoC6\pdl\drivers/peripheral/scb/cy_scb_ezi2c.h **** /**
  16:Generated_Source\PSoC6\pdl\drivers/peripheral/scb/cy_scb_ezi2c.h **** * \addtogroup group_scb_ezi2c
  17:Generated_Source\PSoC6\pdl\drivers/peripheral/scb/cy_scb_ezi2c.h **** * \{
  18:Generated_Source\PSoC6\pdl\drivers/peripheral/scb/cy_scb_ezi2c.h **** * Driver API for EZI2C Slave Peripheral
ARM GAS  C:\Users\DAVIDW~1\AppData\Local\Temp\ccImPayJ.s 			page 22


  19:Generated_Source\PSoC6\pdl\drivers/peripheral/scb/cy_scb_ezi2c.h **** *
  20:Generated_Source\PSoC6\pdl\drivers/peripheral/scb/cy_scb_ezi2c.h **** * I2C - The Inter-Integrated Circuit (I2C) bus is an industry-standard.
  21:Generated_Source\PSoC6\pdl\drivers/peripheral/scb/cy_scb_ezi2c.h **** * The two-wire hardware interface was developed by Philips Semiconductors
  22:Generated_Source\PSoC6\pdl\drivers/peripheral/scb/cy_scb_ezi2c.h **** * (now NXP Semiconductors).
  23:Generated_Source\PSoC6\pdl\drivers/peripheral/scb/cy_scb_ezi2c.h **** *
  24:Generated_Source\PSoC6\pdl\drivers/peripheral/scb/cy_scb_ezi2c.h **** * The EZI2C slave peripheral driver provides an API to implement the I2C slave
  25:Generated_Source\PSoC6\pdl\drivers/peripheral/scb/cy_scb_ezi2c.h **** * device based on the SCB hardware block. This slave device emulates a common
  26:Generated_Source\PSoC6\pdl\drivers/peripheral/scb/cy_scb_ezi2c.h **** * I2C EEPROM interface that acts like dual-port memory between the external
  27:Generated_Source\PSoC6\pdl\drivers/peripheral/scb/cy_scb_ezi2c.h **** * master and your code. I2C devices based on the SCB hardware are compatible
  28:Generated_Source\PSoC6\pdl\drivers/peripheral/scb/cy_scb_ezi2c.h **** * with the I2C Standard mode, Fast mode, and Fast mode Plus specifications, as
  29:Generated_Source\PSoC6\pdl\drivers/peripheral/scb/cy_scb_ezi2c.h **** * defined in the I2C bus specification.
  30:Generated_Source\PSoC6\pdl\drivers/peripheral/scb/cy_scb_ezi2c.h **** *
  31:Generated_Source\PSoC6\pdl\drivers/peripheral/scb/cy_scb_ezi2c.h **** * Features:
  32:Generated_Source\PSoC6\pdl\drivers/peripheral/scb/cy_scb_ezi2c.h **** * * An industry-standard I2C bus interface
  33:Generated_Source\PSoC6\pdl\drivers/peripheral/scb/cy_scb_ezi2c.h **** * * Supports standard data rates of 100/400/1000 kbps
  34:Generated_Source\PSoC6\pdl\drivers/peripheral/scb/cy_scb_ezi2c.h **** * * Emulates a common I2C EEPROM Interface
  35:Generated_Source\PSoC6\pdl\drivers/peripheral/scb/cy_scb_ezi2c.h **** * * Acts like dual-port memory between the external master and your code
  36:Generated_Source\PSoC6\pdl\drivers/peripheral/scb/cy_scb_ezi2c.h **** * * Supports Hardware Address Match
  37:Generated_Source\PSoC6\pdl\drivers/peripheral/scb/cy_scb_ezi2c.h **** * * Supports two hardware addresses with separate buffers
  38:Generated_Source\PSoC6\pdl\drivers/peripheral/scb/cy_scb_ezi2c.h **** * * Supports Wake from Deep Sleep on address match
  39:Generated_Source\PSoC6\pdl\drivers/peripheral/scb/cy_scb_ezi2c.h **** * * Simple to set up and use; does not require calling EZI2C API
  40:Generated_Source\PSoC6\pdl\drivers/peripheral/scb/cy_scb_ezi2c.h **** *   at run time.
  41:Generated_Source\PSoC6\pdl\drivers/peripheral/scb/cy_scb_ezi2c.h **** *
  42:Generated_Source\PSoC6\pdl\drivers/peripheral/scb/cy_scb_ezi2c.h **** * \section group_scb_ezi2c_configuration Configuration Considerations
  43:Generated_Source\PSoC6\pdl\drivers/peripheral/scb/cy_scb_ezi2c.h **** * The EZI2C slave driver configuration can be divided to number of sequential 
  44:Generated_Source\PSoC6\pdl\drivers/peripheral/scb/cy_scb_ezi2c.h **** * steps listed below: 
  45:Generated_Source\PSoC6\pdl\drivers/peripheral/scb/cy_scb_ezi2c.h **** * * \ref group_scb_ezi2c_config
  46:Generated_Source\PSoC6\pdl\drivers/peripheral/scb/cy_scb_ezi2c.h **** * * \ref group_scb_ezi2c_pins
  47:Generated_Source\PSoC6\pdl\drivers/peripheral/scb/cy_scb_ezi2c.h **** * * \ref group_scb_ezi2c_clock
  48:Generated_Source\PSoC6\pdl\drivers/peripheral/scb/cy_scb_ezi2c.h **** * * \ref group_scb_ezi2c_data_rate
  49:Generated_Source\PSoC6\pdl\drivers/peripheral/scb/cy_scb_ezi2c.h **** * * \ref group_scb_ezi2c_intr
  50:Generated_Source\PSoC6\pdl\drivers/peripheral/scb/cy_scb_ezi2c.h **** * * \ref group_scb_ezi2c_enable
  51:Generated_Source\PSoC6\pdl\drivers/peripheral/scb/cy_scb_ezi2c.h **** * 
  52:Generated_Source\PSoC6\pdl\drivers/peripheral/scb/cy_scb_ezi2c.h **** * \note 
  53:Generated_Source\PSoC6\pdl\drivers/peripheral/scb/cy_scb_ezi2c.h **** * EZI2C slave driver is built on top of the SCB hardware block. The SCB3 
  54:Generated_Source\PSoC6\pdl\drivers/peripheral/scb/cy_scb_ezi2c.h **** * instance is used as an example for all code snippets. Modify the code to 
  55:Generated_Source\PSoC6\pdl\drivers/peripheral/scb/cy_scb_ezi2c.h **** * match your design.
  56:Generated_Source\PSoC6\pdl\drivers/peripheral/scb/cy_scb_ezi2c.h **** *
  57:Generated_Source\PSoC6\pdl\drivers/peripheral/scb/cy_scb_ezi2c.h **** * \subsection group_scb_ezi2c_config Configure EZI2C slave
  58:Generated_Source\PSoC6\pdl\drivers/peripheral/scb/cy_scb_ezi2c.h **** * To set up the EZI2C slave driver, provide the configuration parameters in the 
  59:Generated_Source\PSoC6\pdl\drivers/peripheral/scb/cy_scb_ezi2c.h **** * \ref cy_stc_scb_ezi2c_config_t structure. The primary slave address 
  60:Generated_Source\PSoC6\pdl\drivers/peripheral/scb/cy_scb_ezi2c.h **** * slaveAddress1 must be provided. The other parameters are optional for 
  61:Generated_Source\PSoC6\pdl\drivers/peripheral/scb/cy_scb_ezi2c.h **** * operation. To initialize the driver, call \ref Cy_SCB_EZI2C_Init 
  62:Generated_Source\PSoC6\pdl\drivers/peripheral/scb/cy_scb_ezi2c.h **** * function providing a pointer to the filled \ref cy_stc_scb_ezi2c_config_t 
  63:Generated_Source\PSoC6\pdl\drivers/peripheral/scb/cy_scb_ezi2c.h **** * structure and allocated \ref cy_stc_scb_ezi2c_context_t.
  64:Generated_Source\PSoC6\pdl\drivers/peripheral/scb/cy_scb_ezi2c.h **** *
  65:Generated_Source\PSoC6\pdl\drivers/peripheral/scb/cy_scb_ezi2c.h **** * \snippet SCB_CompDatasheet_sut_01_revA.cydsn\ezi2c_snippets.c EZI2C_CFG
  66:Generated_Source\PSoC6\pdl\drivers/peripheral/scb/cy_scb_ezi2c.h **** *
  67:Generated_Source\PSoC6\pdl\drivers/peripheral/scb/cy_scb_ezi2c.h **** * Set up the EZI2C slave buffer before enabling its 
  68:Generated_Source\PSoC6\pdl\drivers/peripheral/scb/cy_scb_ezi2c.h **** * operation by using \ref Cy_SCB_EZI2C_SetBuffer1 for the primary slave address  
  69:Generated_Source\PSoC6\pdl\drivers/peripheral/scb/cy_scb_ezi2c.h **** * and \ref Cy_SCB_EZI2C_SetBuffer2 for the secondary (if the secondary is enabled).
  70:Generated_Source\PSoC6\pdl\drivers/peripheral/scb/cy_scb_ezi2c.h **** *
  71:Generated_Source\PSoC6\pdl\drivers/peripheral/scb/cy_scb_ezi2c.h **** * \snippet SCB_CompDatasheet_sut_01_revA.cydsn\ezi2c_snippets.c EZI2C_CFG_BUFFER
  72:Generated_Source\PSoC6\pdl\drivers/peripheral/scb/cy_scb_ezi2c.h **** *
  73:Generated_Source\PSoC6\pdl\drivers/peripheral/scb/cy_scb_ezi2c.h **** * \subsection group_scb_ezi2c_pins Assign and Configure Pins
  74:Generated_Source\PSoC6\pdl\drivers/peripheral/scb/cy_scb_ezi2c.h **** * Only dedicated SCB pins can be used for I2C operation. The HSIOM 
  75:Generated_Source\PSoC6\pdl\drivers/peripheral/scb/cy_scb_ezi2c.h **** * register must be configured to connect the block to the pins. Also the I2C pins 
ARM GAS  C:\Users\DAVIDW~1\AppData\Local\Temp\ccImPayJ.s 			page 23


  76:Generated_Source\PSoC6\pdl\drivers/peripheral/scb/cy_scb_ezi2c.h **** * must be configured in Open-Drain, Drives Low mode (this pin configuration 
  77:Generated_Source\PSoC6\pdl\drivers/peripheral/scb/cy_scb_ezi2c.h **** * implies usage of external pull-up resistors):
  78:Generated_Source\PSoC6\pdl\drivers/peripheral/scb/cy_scb_ezi2c.h **** *
  79:Generated_Source\PSoC6\pdl\drivers/peripheral/scb/cy_scb_ezi2c.h **** * \snippet SCB_CompDatasheet_sut_01_revA.cydsn\ezi2c_snippets.c EZI2C_CFG_PINS
  80:Generated_Source\PSoC6\pdl\drivers/peripheral/scb/cy_scb_ezi2c.h **** *
  81:Generated_Source\PSoC6\pdl\drivers/peripheral/scb/cy_scb_ezi2c.h **** * \note
  82:Generated_Source\PSoC6\pdl\drivers/peripheral/scb/cy_scb_ezi2c.h **** * The alternative pins configuration is Resistive Pull-ups which implies usage 
  83:Generated_Source\PSoC6\pdl\drivers/peripheral/scb/cy_scb_ezi2c.h **** * internal pull-up resistors. This configuration is not recommended because 
  84:Generated_Source\PSoC6\pdl\drivers/peripheral/scb/cy_scb_ezi2c.h **** * resistor value is fixed and cannot be used for all supported data rates. 
  85:Generated_Source\PSoC6\pdl\drivers/peripheral/scb/cy_scb_ezi2c.h **** * Refer to device datasheet parameter RPULLUP for resistor value specifications.
  86:Generated_Source\PSoC6\pdl\drivers/peripheral/scb/cy_scb_ezi2c.h **** *
  87:Generated_Source\PSoC6\pdl\drivers/peripheral/scb/cy_scb_ezi2c.h **** * \subsection group_scb_ezi2c_clock Assign Clock Divider
  88:Generated_Source\PSoC6\pdl\drivers/peripheral/scb/cy_scb_ezi2c.h **** * The clock source must be connected to the SCB block to oversample input and 
  89:Generated_Source\PSoC6\pdl\drivers/peripheral/scb/cy_scb_ezi2c.h **** * output signals. You must use one of the 8-bit or 16-bit dividers <em><b>(the  
  90:Generated_Source\PSoC6\pdl\drivers/peripheral/scb/cy_scb_ezi2c.h **** * source clock of this divider must be Clk_Peri)</b></em>. Use the  
  91:Generated_Source\PSoC6\pdl\drivers/peripheral/scb/cy_scb_ezi2c.h **** * \ref group_sysclk driver API to do that.
  92:Generated_Source\PSoC6\pdl\drivers/peripheral/scb/cy_scb_ezi2c.h **** *
  93:Generated_Source\PSoC6\pdl\drivers/peripheral/scb/cy_scb_ezi2c.h **** * \snippet SCB_CompDatasheet_sut_01_revA.cydsn\ezi2c_snippets.c EZI2C_CFG_ASSIGN_CLOCK
  94:Generated_Source\PSoC6\pdl\drivers/peripheral/scb/cy_scb_ezi2c.h **** *
  95:Generated_Source\PSoC6\pdl\drivers/peripheral/scb/cy_scb_ezi2c.h **** * \subsection group_scb_ezi2c_data_rate Configure Data Rate
  96:Generated_Source\PSoC6\pdl\drivers/peripheral/scb/cy_scb_ezi2c.h **** * To get EZI2C slave to operate at the desired data rate, the source clock must be 
  97:Generated_Source\PSoC6\pdl\drivers/peripheral/scb/cy_scb_ezi2c.h **** * fast enough to provide sufficient oversampling. Therefore, the clock divider 
  98:Generated_Source\PSoC6\pdl\drivers/peripheral/scb/cy_scb_ezi2c.h **** * must be configured to provide desired clock frequency. Use the 
  99:Generated_Source\PSoC6\pdl\drivers/peripheral/scb/cy_scb_ezi2c.h **** * \ref group_sysclk driver API to do that. 
 100:Generated_Source\PSoC6\pdl\drivers/peripheral/scb/cy_scb_ezi2c.h **** * Refer to the technical reference manual (TRM) section I2C sub-section 
 101:Generated_Source\PSoC6\pdl\drivers/peripheral/scb/cy_scb_ezi2c.h **** * Oversampling and Bit Rate to get information about how to configure the I2C to run 
 102:Generated_Source\PSoC6\pdl\drivers/peripheral/scb/cy_scb_ezi2c.h **** * at the desired data rate.
 103:Generated_Source\PSoC6\pdl\drivers/peripheral/scb/cy_scb_ezi2c.h **** *
 104:Generated_Source\PSoC6\pdl\drivers/peripheral/scb/cy_scb_ezi2c.h **** * \snippet SCB_CompDatasheet_sut_01_revA.cydsn\ezi2c_snippets.c EZI2C_CFG_DATA_RATE
 105:Generated_Source\PSoC6\pdl\drivers/peripheral/scb/cy_scb_ezi2c.h **** *
 106:Generated_Source\PSoC6\pdl\drivers/peripheral/scb/cy_scb_ezi2c.h **** * \subsection group_scb_ezi2c_intr Configure Interrupt
 107:Generated_Source\PSoC6\pdl\drivers/peripheral/scb/cy_scb_ezi2c.h **** * The interrupt is mandatory for the EZI2C slave operation. 
 108:Generated_Source\PSoC6\pdl\drivers/peripheral/scb/cy_scb_ezi2c.h **** * The \ref Cy_SCB_EZI2C_Interrupt function must be called in the interrupt 
 109:Generated_Source\PSoC6\pdl\drivers/peripheral/scb/cy_scb_ezi2c.h **** * handler for the selected SCB instance. Also, this interrupt must be enabled 
 110:Generated_Source\PSoC6\pdl\drivers/peripheral/scb/cy_scb_ezi2c.h **** * in the NVIC or it will not work.
 111:Generated_Source\PSoC6\pdl\drivers/peripheral/scb/cy_scb_ezi2c.h **** *
 112:Generated_Source\PSoC6\pdl\drivers/peripheral/scb/cy_scb_ezi2c.h **** * \snippet SCB_CompDatasheet_sut_01_revA.cydsn\ezi2c_snippets.c EZI2C_INTR_A
 113:Generated_Source\PSoC6\pdl\drivers/peripheral/scb/cy_scb_ezi2c.h **** * \snippet SCB_CompDatasheet_sut_01_revA.cydsn\ezi2c_snippets.c EZI2C_INTR_B
 114:Generated_Source\PSoC6\pdl\drivers/peripheral/scb/cy_scb_ezi2c.h **** *
 115:Generated_Source\PSoC6\pdl\drivers/peripheral/scb/cy_scb_ezi2c.h **** * \subsection group_scb_ezi2c_enable Enable EZI2C slave
 116:Generated_Source\PSoC6\pdl\drivers/peripheral/scb/cy_scb_ezi2c.h **** * Finally, enable the EZI2C slave operation by calling \ref Cy_SCB_EZI2C_Enable. 
 117:Generated_Source\PSoC6\pdl\drivers/peripheral/scb/cy_scb_ezi2c.h **** * Now the I2C device responds to the assigned address.
 118:Generated_Source\PSoC6\pdl\drivers/peripheral/scb/cy_scb_ezi2c.h **** * \snippet SCB_CompDatasheet_sut_01_revA.cydsn\ezi2c_snippets.c EZI2C_ENABLE
 119:Generated_Source\PSoC6\pdl\drivers/peripheral/scb/cy_scb_ezi2c.h **** *
 120:Generated_Source\PSoC6\pdl\drivers/peripheral/scb/cy_scb_ezi2c.h **** * \section group_scb_ezi2c_use_cases Common Use Cases 
 121:Generated_Source\PSoC6\pdl\drivers/peripheral/scb/cy_scb_ezi2c.h **** * The EZI2C slave operation might not require calling any EZI2C slave function
 122:Generated_Source\PSoC6\pdl\drivers/peripheral/scb/cy_scb_ezi2c.h **** * because the I2C master is able to access the slave buffer. The application
 123:Generated_Source\PSoC6\pdl\drivers/peripheral/scb/cy_scb_ezi2c.h **** * can directly access it as well. Note that this is an application-level task
 124:Generated_Source\PSoC6\pdl\drivers/peripheral/scb/cy_scb_ezi2c.h **** * to ensure the buffer content integrity.
 125:Generated_Source\PSoC6\pdl\drivers/peripheral/scb/cy_scb_ezi2c.h **** * 
 126:Generated_Source\PSoC6\pdl\drivers/peripheral/scb/cy_scb_ezi2c.h **** * \subsection group_scb_ezi2c_master_wr Master Write operation
 127:Generated_Source\PSoC6\pdl\drivers/peripheral/scb/cy_scb_ezi2c.h **** * This operation starts with sending a base address that is one
 128:Generated_Source\PSoC6\pdl\drivers/peripheral/scb/cy_scb_ezi2c.h **** * or two bytes, depending on the sub-address size configuration. This base
 129:Generated_Source\PSoC6\pdl\drivers/peripheral/scb/cy_scb_ezi2c.h **** * address is retained and will be used for later read operations. Following
 130:Generated_Source\PSoC6\pdl\drivers/peripheral/scb/cy_scb_ezi2c.h **** * the base address, there is a sequence of bytes written into the buffer
 131:Generated_Source\PSoC6\pdl\drivers/peripheral/scb/cy_scb_ezi2c.h **** * starting from the base address location. The buffer index is incremented
 132:Generated_Source\PSoC6\pdl\drivers/peripheral/scb/cy_scb_ezi2c.h **** * for each written byte, but this does not affect the base address that is
ARM GAS  C:\Users\DAVIDW~1\AppData\Local\Temp\ccImPayJ.s 			page 24


 133:Generated_Source\PSoC6\pdl\drivers/peripheral/scb/cy_scb_ezi2c.h **** * retained. The length of a write operation is limited by the maximum buffer
 134:Generated_Source\PSoC6\pdl\drivers/peripheral/scb/cy_scb_ezi2c.h **** * read/write region size.\n
 135:Generated_Source\PSoC6\pdl\drivers/peripheral/scb/cy_scb_ezi2c.h **** * When a master attempts to write outside the read/write region or past the
 136:Generated_Source\PSoC6\pdl\drivers/peripheral/scb/cy_scb_ezi2c.h **** * end of the buffer, the last byte is NACKed.
 137:Generated_Source\PSoC6\pdl\drivers/peripheral/scb/cy_scb_ezi2c.h **** * 
 138:Generated_Source\PSoC6\pdl\drivers/peripheral/scb/cy_scb_ezi2c.h **** * \image html scb_ezi2c_write.png
 139:Generated_Source\PSoC6\pdl\drivers/peripheral/scb/cy_scb_ezi2c.h **** * 
 140:Generated_Source\PSoC6\pdl\drivers/peripheral/scb/cy_scb_ezi2c.h **** * \subsection group_scb_ezi2c_master_rd Master Read operation
 141:Generated_Source\PSoC6\pdl\drivers/peripheral/scb/cy_scb_ezi2c.h **** * This operation always starts from the base address set by the most
 142:Generated_Source\PSoC6\pdl\drivers/peripheral/scb/cy_scb_ezi2c.h **** * recent write operation. The buffer index is incremented for each read byte.
 143:Generated_Source\PSoC6\pdl\drivers/peripheral/scb/cy_scb_ezi2c.h **** * Two sequential read operations start from the same base address no matter
 144:Generated_Source\PSoC6\pdl\drivers/peripheral/scb/cy_scb_ezi2c.h **** * how many bytes are read. The length of a read operation is not limited by
 145:Generated_Source\PSoC6\pdl\drivers/peripheral/scb/cy_scb_ezi2c.h **** * the maximum size of the data buffer. The EZI2C slave returns 0xFF bytes
 146:Generated_Source\PSoC6\pdl\drivers/peripheral/scb/cy_scb_ezi2c.h **** * if the read operation passes the end of the buffer.\n
 147:Generated_Source\PSoC6\pdl\drivers/peripheral/scb/cy_scb_ezi2c.h **** * Typically, a read operation requires the base address to be updated before
 148:Generated_Source\PSoC6\pdl\drivers/peripheral/scb/cy_scb_ezi2c.h **** * starting the read. In this case, the write and read operations must be
 149:Generated_Source\PSoC6\pdl\drivers/peripheral/scb/cy_scb_ezi2c.h **** * combined together.
 150:Generated_Source\PSoC6\pdl\drivers/peripheral/scb/cy_scb_ezi2c.h **** *
 151:Generated_Source\PSoC6\pdl\drivers/peripheral/scb/cy_scb_ezi2c.h **** * \image html scb_ezi2c_read.png
 152:Generated_Source\PSoC6\pdl\drivers/peripheral/scb/cy_scb_ezi2c.h **** *
 153:Generated_Source\PSoC6\pdl\drivers/peripheral/scb/cy_scb_ezi2c.h **** * The I2C master may use the ReStart or Stop/Start conditions to combine the 
 154:Generated_Source\PSoC6\pdl\drivers/peripheral/scb/cy_scb_ezi2c.h **** * operations. The write operation sets only the base address and the following
 155:Generated_Source\PSoC6\pdl\drivers/peripheral/scb/cy_scb_ezi2c.h **** * read operation will start from the new base address. In cases where the base
 156:Generated_Source\PSoC6\pdl\drivers/peripheral/scb/cy_scb_ezi2c.h **** * address remains the same, there is no need for a write operation.
 157:Generated_Source\PSoC6\pdl\drivers/peripheral/scb/cy_scb_ezi2c.h **** * \image html scb_ezi2c_set_ba_read.png
 158:Generated_Source\PSoC6\pdl\drivers/peripheral/scb/cy_scb_ezi2c.h **** *
 159:Generated_Source\PSoC6\pdl\drivers/peripheral/scb/cy_scb_ezi2c.h **** * \section group_scb_ezi2c_lp Low Power Support
 160:Generated_Source\PSoC6\pdl\drivers/peripheral/scb/cy_scb_ezi2c.h **** * The EZI2C slave provides the callback functions to handle power mode 
 161:Generated_Source\PSoC6\pdl\drivers/peripheral/scb/cy_scb_ezi2c.h **** * transition. The callback \ref Cy_SCB_EZI2C_DeepSleepCallback must be called 
 162:Generated_Source\PSoC6\pdl\drivers/peripheral/scb/cy_scb_ezi2c.h **** * during execution of \ref Cy_SysPm_DeepSleep; 
 163:Generated_Source\PSoC6\pdl\drivers/peripheral/scb/cy_scb_ezi2c.h **** * \ref Cy_SCB_EZI2C_HibernateCallback must be called during execution of 
 164:Generated_Source\PSoC6\pdl\drivers/peripheral/scb/cy_scb_ezi2c.h **** * \ref Cy_SysPm_Hibernate. To trigger the callback execution, the callback must 
 165:Generated_Source\PSoC6\pdl\drivers/peripheral/scb/cy_scb_ezi2c.h **** * be registered before calling the power mode transition function. Refer to 
 166:Generated_Source\PSoC6\pdl\drivers/peripheral/scb/cy_scb_ezi2c.h **** * \ref group_syspm driver for more information about power mode transitions and 
 167:Generated_Source\PSoC6\pdl\drivers/peripheral/scb/cy_scb_ezi2c.h **** * callback registration.
 168:Generated_Source\PSoC6\pdl\drivers/peripheral/scb/cy_scb_ezi2c.h **** *
 169:Generated_Source\PSoC6\pdl\drivers/peripheral/scb/cy_scb_ezi2c.h **** * \note
 170:Generated_Source\PSoC6\pdl\drivers/peripheral/scb/cy_scb_ezi2c.h **** * Only applicable for <b>rev-08 of the CY8CKIT-062-BLE</b>.
 171:Generated_Source\PSoC6\pdl\drivers/peripheral/scb/cy_scb_ezi2c.h **** * For proper operation, when the EZI2C slave is configured to be a wakeup 
 172:Generated_Source\PSoC6\pdl\drivers/peripheral/scb/cy_scb_ezi2c.h **** * source from Deep Sleep mode, the \ref Cy_SCB_EZI2C_DeepSleepCallback must 
 173:Generated_Source\PSoC6\pdl\drivers/peripheral/scb/cy_scb_ezi2c.h **** * be copied and modified. Refer to the function description to get the details.
 174:Generated_Source\PSoC6\pdl\drivers/peripheral/scb/cy_scb_ezi2c.h **** *
 175:Generated_Source\PSoC6\pdl\drivers/peripheral/scb/cy_scb_ezi2c.h **** * \section group_scb_ezi2c_more_information More Information
 176:Generated_Source\PSoC6\pdl\drivers/peripheral/scb/cy_scb_ezi2c.h **** *
 177:Generated_Source\PSoC6\pdl\drivers/peripheral/scb/cy_scb_ezi2c.h **** * For more information on the SCB peripheral, refer to the technical reference
 178:Generated_Source\PSoC6\pdl\drivers/peripheral/scb/cy_scb_ezi2c.h **** * manual (TRM).
 179:Generated_Source\PSoC6\pdl\drivers/peripheral/scb/cy_scb_ezi2c.h **** *
 180:Generated_Source\PSoC6\pdl\drivers/peripheral/scb/cy_scb_ezi2c.h **** * \section group_scb_ezi2c_MISRA MISRA-C Compliance
 181:Generated_Source\PSoC6\pdl\drivers/peripheral/scb/cy_scb_ezi2c.h **** * <table class="doxtable">
 182:Generated_Source\PSoC6\pdl\drivers/peripheral/scb/cy_scb_ezi2c.h **** *   <tr>
 183:Generated_Source\PSoC6\pdl\drivers/peripheral/scb/cy_scb_ezi2c.h **** *     <th>MISRA Rule</th>
 184:Generated_Source\PSoC6\pdl\drivers/peripheral/scb/cy_scb_ezi2c.h **** *     <th>Rule Class (Required/Advisory)</th>
 185:Generated_Source\PSoC6\pdl\drivers/peripheral/scb/cy_scb_ezi2c.h **** *     <th>Rule Description</th>
 186:Generated_Source\PSoC6\pdl\drivers/peripheral/scb/cy_scb_ezi2c.h **** *     <th>Description of Deviation(s)</th>
 187:Generated_Source\PSoC6\pdl\drivers/peripheral/scb/cy_scb_ezi2c.h **** *   </tr>
 188:Generated_Source\PSoC6\pdl\drivers/peripheral/scb/cy_scb_ezi2c.h **** *   <tr>
 189:Generated_Source\PSoC6\pdl\drivers/peripheral/scb/cy_scb_ezi2c.h **** *     <td>11.4</td>
ARM GAS  C:\Users\DAVIDW~1\AppData\Local\Temp\ccImPayJ.s 			page 25


 190:Generated_Source\PSoC6\pdl\drivers/peripheral/scb/cy_scb_ezi2c.h **** *     <td>A</td>
 191:Generated_Source\PSoC6\pdl\drivers/peripheral/scb/cy_scb_ezi2c.h **** *     <td>A cast should not be performed between a pointer to object type and
 192:Generated_Source\PSoC6\pdl\drivers/peripheral/scb/cy_scb_ezi2c.h **** *         a different pointer to object type.</td>
 193:Generated_Source\PSoC6\pdl\drivers/peripheral/scb/cy_scb_ezi2c.h **** *     <td>The functions \ref Cy_SCB_EZI2C_DeepSleepCallback and
 194:Generated_Source\PSoC6\pdl\drivers/peripheral/scb/cy_scb_ezi2c.h **** *         \ref Cy_SCB_EZI2C_HibernateCallback are callback of
 195:Generated_Source\PSoC6\pdl\drivers/peripheral/scb/cy_scb_ezi2c.h **** *         \ref cy_en_syspm_status_t type. The cast operation safety in these
 196:Generated_Source\PSoC6\pdl\drivers/peripheral/scb/cy_scb_ezi2c.h **** *         functions becomes the user's responsibility because pointers are
 197:Generated_Source\PSoC6\pdl\drivers/peripheral/scb/cy_scb_ezi2c.h **** *         initialized when callback is registered in SysPm driver.</td>
 198:Generated_Source\PSoC6\pdl\drivers/peripheral/scb/cy_scb_ezi2c.h **** *   </tr>
 199:Generated_Source\PSoC6\pdl\drivers/peripheral/scb/cy_scb_ezi2c.h **** *   <tr>
 200:Generated_Source\PSoC6\pdl\drivers/peripheral/scb/cy_scb_ezi2c.h **** *     <td>14.1</td>
 201:Generated_Source\PSoC6\pdl\drivers/peripheral/scb/cy_scb_ezi2c.h **** *     <td>R</td>
 202:Generated_Source\PSoC6\pdl\drivers/peripheral/scb/cy_scb_ezi2c.h **** *     <td>There shall be no unreachable code.</td>
 203:Generated_Source\PSoC6\pdl\drivers/peripheral/scb/cy_scb_ezi2c.h **** *     <td>The SCB block parameters can be a constant false or true depending on
 204:Generated_Source\PSoC6\pdl\drivers/peripheral/scb/cy_scb_ezi2c.h **** *         the selected device and cause code to be unreachable.</td>
 205:Generated_Source\PSoC6\pdl\drivers/peripheral/scb/cy_scb_ezi2c.h **** *   </tr>
 206:Generated_Source\PSoC6\pdl\drivers/peripheral/scb/cy_scb_ezi2c.h **** *   <tr>
 207:Generated_Source\PSoC6\pdl\drivers/peripheral/scb/cy_scb_ezi2c.h **** *     <td>14.2</td>
 208:Generated_Source\PSoC6\pdl\drivers/peripheral/scb/cy_scb_ezi2c.h **** *     <td>R</td>
 209:Generated_Source\PSoC6\pdl\drivers/peripheral/scb/cy_scb_ezi2c.h **** *     <td>All non-null statements shall either: a) have at least one side-effect
 210:Generated_Source\PSoC6\pdl\drivers/peripheral/scb/cy_scb_ezi2c.h **** *         however executed, or b) cause control flow to change.</td>
 211:Generated_Source\PSoC6\pdl\drivers/peripheral/scb/cy_scb_ezi2c.h **** *     <td>The unused function parameters are cast to void. This statement
 212:Generated_Source\PSoC6\pdl\drivers/peripheral/scb/cy_scb_ezi2c.h **** *         has no side-effect and is used to suppress a compiler warning.</td>
 213:Generated_Source\PSoC6\pdl\drivers/peripheral/scb/cy_scb_ezi2c.h **** *   </tr>
 214:Generated_Source\PSoC6\pdl\drivers/peripheral/scb/cy_scb_ezi2c.h **** *   <tr>
 215:Generated_Source\PSoC6\pdl\drivers/peripheral/scb/cy_scb_ezi2c.h **** *     <td>14.7</td>
 216:Generated_Source\PSoC6\pdl\drivers/peripheral/scb/cy_scb_ezi2c.h **** *     <td>R</td>
 217:Generated_Source\PSoC6\pdl\drivers/peripheral/scb/cy_scb_ezi2c.h **** *     <td>A function shall have a single point of exit at the end of the
 218:Generated_Source\PSoC6\pdl\drivers/peripheral/scb/cy_scb_ezi2c.h **** *         function.</td>
 219:Generated_Source\PSoC6\pdl\drivers/peripheral/scb/cy_scb_ezi2c.h **** *     <td>The functions can return from several points. This is done to improve
 220:Generated_Source\PSoC6\pdl\drivers/peripheral/scb/cy_scb_ezi2c.h **** *         code clarity when returning error status code if input parameter
 221:Generated_Source\PSoC6\pdl\drivers/peripheral/scb/cy_scb_ezi2c.h **** *         validation fails.</td>
 222:Generated_Source\PSoC6\pdl\drivers/peripheral/scb/cy_scb_ezi2c.h **** *   </tr>
 223:Generated_Source\PSoC6\pdl\drivers/peripheral/scb/cy_scb_ezi2c.h **** * </table>
 224:Generated_Source\PSoC6\pdl\drivers/peripheral/scb/cy_scb_ezi2c.h **** *
 225:Generated_Source\PSoC6\pdl\drivers/peripheral/scb/cy_scb_ezi2c.h **** * \section group_scb_ezi2c_changelog Changelog
 226:Generated_Source\PSoC6\pdl\drivers/peripheral/scb/cy_scb_ezi2c.h **** * <table class="doxtable">
 227:Generated_Source\PSoC6\pdl\drivers/peripheral/scb/cy_scb_ezi2c.h **** *   <tr><th>Version</th><th>Changes</th><th>Reason for Change</th></tr>
 228:Generated_Source\PSoC6\pdl\drivers/peripheral/scb/cy_scb_ezi2c.h **** *   <tr>
 229:Generated_Source\PSoC6\pdl\drivers/peripheral/scb/cy_scb_ezi2c.h **** *     <td>2.10</td>
 230:Generated_Source\PSoC6\pdl\drivers/peripheral/scb/cy_scb_ezi2c.h **** *     <td>None.</td>
 231:Generated_Source\PSoC6\pdl\drivers/peripheral/scb/cy_scb_ezi2c.h **** *     <td>SCB I2C driver updated.</td>
 232:Generated_Source\PSoC6\pdl\drivers/peripheral/scb/cy_scb_ezi2c.h **** *   </tr>
 233:Generated_Source\PSoC6\pdl\drivers/peripheral/scb/cy_scb_ezi2c.h **** *   <tr>
 234:Generated_Source\PSoC6\pdl\drivers/peripheral/scb/cy_scb_ezi2c.h **** *     <td rowspan="2"> 2.0</td>
 235:Generated_Source\PSoC6\pdl\drivers/peripheral/scb/cy_scb_ezi2c.h **** *     <td>Added parameters validation for public API.</td>
 236:Generated_Source\PSoC6\pdl\drivers/peripheral/scb/cy_scb_ezi2c.h **** *     <td></td>
 237:Generated_Source\PSoC6\pdl\drivers/peripheral/scb/cy_scb_ezi2c.h **** *   </tr>
 238:Generated_Source\PSoC6\pdl\drivers/peripheral/scb/cy_scb_ezi2c.h **** *   <tr>
 239:Generated_Source\PSoC6\pdl\drivers/peripheral/scb/cy_scb_ezi2c.h **** *     <td>Replaced variables that have limited range of values with enumerated
 240:Generated_Source\PSoC6\pdl\drivers/peripheral/scb/cy_scb_ezi2c.h **** *         types.</td>
 241:Generated_Source\PSoC6\pdl\drivers/peripheral/scb/cy_scb_ezi2c.h **** *     <td></td>
 242:Generated_Source\PSoC6\pdl\drivers/peripheral/scb/cy_scb_ezi2c.h **** *   </tr>
 243:Generated_Source\PSoC6\pdl\drivers/peripheral/scb/cy_scb_ezi2c.h **** *   <tr>
 244:Generated_Source\PSoC6\pdl\drivers/peripheral/scb/cy_scb_ezi2c.h **** *     <td>1.0</td>
 245:Generated_Source\PSoC6\pdl\drivers/peripheral/scb/cy_scb_ezi2c.h **** *     <td>Initial version.</td>
 246:Generated_Source\PSoC6\pdl\drivers/peripheral/scb/cy_scb_ezi2c.h **** *     <td></td>
ARM GAS  C:\Users\DAVIDW~1\AppData\Local\Temp\ccImPayJ.s 			page 26


 247:Generated_Source\PSoC6\pdl\drivers/peripheral/scb/cy_scb_ezi2c.h **** *   </tr>
 248:Generated_Source\PSoC6\pdl\drivers/peripheral/scb/cy_scb_ezi2c.h **** * </table>
 249:Generated_Source\PSoC6\pdl\drivers/peripheral/scb/cy_scb_ezi2c.h **** *
 250:Generated_Source\PSoC6\pdl\drivers/peripheral/scb/cy_scb_ezi2c.h **** * \defgroup group_scb_ezi2c_macros Macros
 251:Generated_Source\PSoC6\pdl\drivers/peripheral/scb/cy_scb_ezi2c.h **** * \defgroup group_scb_ezi2c_functions Functions
 252:Generated_Source\PSoC6\pdl\drivers/peripheral/scb/cy_scb_ezi2c.h **** * \{
 253:Generated_Source\PSoC6\pdl\drivers/peripheral/scb/cy_scb_ezi2c.h **** * \defgroup group_scb_ezi2c_general_functions General
 254:Generated_Source\PSoC6\pdl\drivers/peripheral/scb/cy_scb_ezi2c.h **** * \defgroup group_scb_ezi2c_slave_functions Slave
 255:Generated_Source\PSoC6\pdl\drivers/peripheral/scb/cy_scb_ezi2c.h **** * \defgroup group_scb_ezi2c_low_power_functions Low Power Callbacks
 256:Generated_Source\PSoC6\pdl\drivers/peripheral/scb/cy_scb_ezi2c.h **** * \}
 257:Generated_Source\PSoC6\pdl\drivers/peripheral/scb/cy_scb_ezi2c.h **** * \defgroup group_scb_ezi2c_data_structures Data Structures
 258:Generated_Source\PSoC6\pdl\drivers/peripheral/scb/cy_scb_ezi2c.h **** * \defgroup group_scb_ezi2c_enums Enumerated Types
 259:Generated_Source\PSoC6\pdl\drivers/peripheral/scb/cy_scb_ezi2c.h **** */
 260:Generated_Source\PSoC6\pdl\drivers/peripheral/scb/cy_scb_ezi2c.h **** 
 261:Generated_Source\PSoC6\pdl\drivers/peripheral/scb/cy_scb_ezi2c.h **** #if !defined(CY_SCB_EZI2C_H)
 262:Generated_Source\PSoC6\pdl\drivers/peripheral/scb/cy_scb_ezi2c.h **** #define CY_SCB_EZI2C_H
 263:Generated_Source\PSoC6\pdl\drivers/peripheral/scb/cy_scb_ezi2c.h **** 
 264:Generated_Source\PSoC6\pdl\drivers/peripheral/scb/cy_scb_ezi2c.h **** #include "cy_scb_common.h"
 265:Generated_Source\PSoC6\pdl\drivers/peripheral/scb/cy_scb_ezi2c.h **** 
 266:Generated_Source\PSoC6\pdl\drivers/peripheral/scb/cy_scb_ezi2c.h **** #if defined(__cplusplus)
 267:Generated_Source\PSoC6\pdl\drivers/peripheral/scb/cy_scb_ezi2c.h **** extern "C" {
 268:Generated_Source\PSoC6\pdl\drivers/peripheral/scb/cy_scb_ezi2c.h **** #endif
 269:Generated_Source\PSoC6\pdl\drivers/peripheral/scb/cy_scb_ezi2c.h **** 
 270:Generated_Source\PSoC6\pdl\drivers/peripheral/scb/cy_scb_ezi2c.h **** /***************************************
 271:Generated_Source\PSoC6\pdl\drivers/peripheral/scb/cy_scb_ezi2c.h **** *       Enumerated Types
 272:Generated_Source\PSoC6\pdl\drivers/peripheral/scb/cy_scb_ezi2c.h **** ***************************************/
 273:Generated_Source\PSoC6\pdl\drivers/peripheral/scb/cy_scb_ezi2c.h **** 
 274:Generated_Source\PSoC6\pdl\drivers/peripheral/scb/cy_scb_ezi2c.h **** /**
 275:Generated_Source\PSoC6\pdl\drivers/peripheral/scb/cy_scb_ezi2c.h **** * \addtogroup group_scb_ezi2c_enums
 276:Generated_Source\PSoC6\pdl\drivers/peripheral/scb/cy_scb_ezi2c.h **** * \{
 277:Generated_Source\PSoC6\pdl\drivers/peripheral/scb/cy_scb_ezi2c.h **** */
 278:Generated_Source\PSoC6\pdl\drivers/peripheral/scb/cy_scb_ezi2c.h **** 
 279:Generated_Source\PSoC6\pdl\drivers/peripheral/scb/cy_scb_ezi2c.h **** /** EZI2C slave status codes */
 280:Generated_Source\PSoC6\pdl\drivers/peripheral/scb/cy_scb_ezi2c.h **** typedef enum
 281:Generated_Source\PSoC6\pdl\drivers/peripheral/scb/cy_scb_ezi2c.h **** {
 282:Generated_Source\PSoC6\pdl\drivers/peripheral/scb/cy_scb_ezi2c.h ****     /** Operation completed successfully */
 283:Generated_Source\PSoC6\pdl\drivers/peripheral/scb/cy_scb_ezi2c.h ****     CY_SCB_EZI2C_SUCCESS = 0U,
 284:Generated_Source\PSoC6\pdl\drivers/peripheral/scb/cy_scb_ezi2c.h **** 
 285:Generated_Source\PSoC6\pdl\drivers/peripheral/scb/cy_scb_ezi2c.h ****     /** One or more of input parameters are invalid */
 286:Generated_Source\PSoC6\pdl\drivers/peripheral/scb/cy_scb_ezi2c.h ****     CY_SCB_EZI2C_BAD_PARAM = (CY_SCB_ID | CY_PDL_STATUS_ERROR | CY_SCB_EZI2C_ID | 1U),
 287:Generated_Source\PSoC6\pdl\drivers/peripheral/scb/cy_scb_ezi2c.h **** } cy_en_scb_ezi2c_status_t;
 288:Generated_Source\PSoC6\pdl\drivers/peripheral/scb/cy_scb_ezi2c.h **** 
 289:Generated_Source\PSoC6\pdl\drivers/peripheral/scb/cy_scb_ezi2c.h **** /** Number of Addresses */
 290:Generated_Source\PSoC6\pdl\drivers/peripheral/scb/cy_scb_ezi2c.h **** typedef enum
 291:Generated_Source\PSoC6\pdl\drivers/peripheral/scb/cy_scb_ezi2c.h **** {
 292:Generated_Source\PSoC6\pdl\drivers/peripheral/scb/cy_scb_ezi2c.h ****     CY_SCB_EZI2C_ONE_ADDRESS,   /**< Only one address */
 293:Generated_Source\PSoC6\pdl\drivers/peripheral/scb/cy_scb_ezi2c.h ****     CY_SCB_EZI2C_TWO_ADDRESSES  /**< Two addresses */
 294:Generated_Source\PSoC6\pdl\drivers/peripheral/scb/cy_scb_ezi2c.h **** } cy_en_scb_ezi2c_num_of_addr_t;
 295:Generated_Source\PSoC6\pdl\drivers/peripheral/scb/cy_scb_ezi2c.h **** 
 296:Generated_Source\PSoC6\pdl\drivers/peripheral/scb/cy_scb_ezi2c.h **** /** Size of Sub-Address */
 297:Generated_Source\PSoC6\pdl\drivers/peripheral/scb/cy_scb_ezi2c.h **** typedef enum
 298:Generated_Source\PSoC6\pdl\drivers/peripheral/scb/cy_scb_ezi2c.h **** {
 299:Generated_Source\PSoC6\pdl\drivers/peripheral/scb/cy_scb_ezi2c.h ****     CY_SCB_EZI2C_SUB_ADDR8_BITS,    /**< Sub-address is 8 bits  */
 300:Generated_Source\PSoC6\pdl\drivers/peripheral/scb/cy_scb_ezi2c.h ****     CY_SCB_EZI2C_SUB_ADDR16_BITS    /**< Sub-address is 16 bits */
 301:Generated_Source\PSoC6\pdl\drivers/peripheral/scb/cy_scb_ezi2c.h **** } cy_en_scb_ezi2c_sub_addr_size_t;
 302:Generated_Source\PSoC6\pdl\drivers/peripheral/scb/cy_scb_ezi2c.h **** 
 303:Generated_Source\PSoC6\pdl\drivers/peripheral/scb/cy_scb_ezi2c.h **** /** \cond INTERNAL */
ARM GAS  C:\Users\DAVIDW~1\AppData\Local\Temp\ccImPayJ.s 			page 27


 304:Generated_Source\PSoC6\pdl\drivers/peripheral/scb/cy_scb_ezi2c.h **** /** EZI2C slave FSM states */
 305:Generated_Source\PSoC6\pdl\drivers/peripheral/scb/cy_scb_ezi2c.h **** typedef enum
 306:Generated_Source\PSoC6\pdl\drivers/peripheral/scb/cy_scb_ezi2c.h **** {
 307:Generated_Source\PSoC6\pdl\drivers/peripheral/scb/cy_scb_ezi2c.h ****     CY_SCB_EZI2C_STATE_IDLE,
 308:Generated_Source\PSoC6\pdl\drivers/peripheral/scb/cy_scb_ezi2c.h ****     CY_SCB_EZI2C_STATE_ADDR,
 309:Generated_Source\PSoC6\pdl\drivers/peripheral/scb/cy_scb_ezi2c.h ****     CY_SCB_EZI2C_STATE_RX_OFFSET_MSB,
 310:Generated_Source\PSoC6\pdl\drivers/peripheral/scb/cy_scb_ezi2c.h ****     CY_SCB_EZI2C_STATE_RX_OFFSET_LSB,
 311:Generated_Source\PSoC6\pdl\drivers/peripheral/scb/cy_scb_ezi2c.h ****     CY_SCB_EZI2C_STATE_RX_DATA0,
 312:Generated_Source\PSoC6\pdl\drivers/peripheral/scb/cy_scb_ezi2c.h ****     CY_SCB_EZI2C_STATE_RX_DATA1,
 313:Generated_Source\PSoC6\pdl\drivers/peripheral/scb/cy_scb_ezi2c.h ****     CY_SCB_EZI2C_STATE_TX_DATA
 314:Generated_Source\PSoC6\pdl\drivers/peripheral/scb/cy_scb_ezi2c.h **** } cy_en_scb_ezi2c_state_t;
 315:Generated_Source\PSoC6\pdl\drivers/peripheral/scb/cy_scb_ezi2c.h **** /** \endcond */
 316:Generated_Source\PSoC6\pdl\drivers/peripheral/scb/cy_scb_ezi2c.h **** /** \} group_scb_ezi2c_enums */
 317:Generated_Source\PSoC6\pdl\drivers/peripheral/scb/cy_scb_ezi2c.h **** 
 318:Generated_Source\PSoC6\pdl\drivers/peripheral/scb/cy_scb_ezi2c.h **** 
 319:Generated_Source\PSoC6\pdl\drivers/peripheral/scb/cy_scb_ezi2c.h **** /***************************************
 320:Generated_Source\PSoC6\pdl\drivers/peripheral/scb/cy_scb_ezi2c.h **** *       Type Definitions
 321:Generated_Source\PSoC6\pdl\drivers/peripheral/scb/cy_scb_ezi2c.h **** ***************************************/
 322:Generated_Source\PSoC6\pdl\drivers/peripheral/scb/cy_scb_ezi2c.h **** 
 323:Generated_Source\PSoC6\pdl\drivers/peripheral/scb/cy_scb_ezi2c.h **** /**
 324:Generated_Source\PSoC6\pdl\drivers/peripheral/scb/cy_scb_ezi2c.h **** * \addtogroup group_scb_ezi2c_data_structures
 325:Generated_Source\PSoC6\pdl\drivers/peripheral/scb/cy_scb_ezi2c.h **** * \{
 326:Generated_Source\PSoC6\pdl\drivers/peripheral/scb/cy_scb_ezi2c.h **** */
 327:Generated_Source\PSoC6\pdl\drivers/peripheral/scb/cy_scb_ezi2c.h **** 
 328:Generated_Source\PSoC6\pdl\drivers/peripheral/scb/cy_scb_ezi2c.h **** /** EZI2C slave configuration structure */
 329:Generated_Source\PSoC6\pdl\drivers/peripheral/scb/cy_scb_ezi2c.h **** typedef struct cy_stc_scb_ezi2c_config
 330:Generated_Source\PSoC6\pdl\drivers/peripheral/scb/cy_scb_ezi2c.h **** {
 331:Generated_Source\PSoC6\pdl\drivers/peripheral/scb/cy_scb_ezi2c.h ****     /** The number of supported addresses either */
 332:Generated_Source\PSoC6\pdl\drivers/peripheral/scb/cy_scb_ezi2c.h ****     cy_en_scb_ezi2c_num_of_addr_t numberOfAddresses;
 333:Generated_Source\PSoC6\pdl\drivers/peripheral/scb/cy_scb_ezi2c.h **** 
 334:Generated_Source\PSoC6\pdl\drivers/peripheral/scb/cy_scb_ezi2c.h ****     /** The 7-bit right justified primary slave address */
 335:Generated_Source\PSoC6\pdl\drivers/peripheral/scb/cy_scb_ezi2c.h ****     uint8_t slaveAddress1;
 336:Generated_Source\PSoC6\pdl\drivers/peripheral/scb/cy_scb_ezi2c.h **** 
 337:Generated_Source\PSoC6\pdl\drivers/peripheral/scb/cy_scb_ezi2c.h ****     /** The 7-bit right justified secondary slave address */
 338:Generated_Source\PSoC6\pdl\drivers/peripheral/scb/cy_scb_ezi2c.h ****     uint8_t slaveAddress2;
 339:Generated_Source\PSoC6\pdl\drivers/peripheral/scb/cy_scb_ezi2c.h **** 
 340:Generated_Source\PSoC6\pdl\drivers/peripheral/scb/cy_scb_ezi2c.h ****     /** The size of the sub-address, can either be 8 or 16 bits */
 341:Generated_Source\PSoC6\pdl\drivers/peripheral/scb/cy_scb_ezi2c.h ****     cy_en_scb_ezi2c_sub_addr_size_t subAddressSize;
 342:Generated_Source\PSoC6\pdl\drivers/peripheral/scb/cy_scb_ezi2c.h **** 
 343:Generated_Source\PSoC6\pdl\drivers/peripheral/scb/cy_scb_ezi2c.h ****     /**
 344:Generated_Source\PSoC6\pdl\drivers/peripheral/scb/cy_scb_ezi2c.h ****     * When set, the slave will wake the device from Deep Sleep on an address
 345:Generated_Source\PSoC6\pdl\drivers/peripheral/scb/cy_scb_ezi2c.h ****     * match (The device datasheet must be consulted to determine which SCBs
 346:Generated_Source\PSoC6\pdl\drivers/peripheral/scb/cy_scb_ezi2c.h ****     * support this mode)
 347:Generated_Source\PSoC6\pdl\drivers/peripheral/scb/cy_scb_ezi2c.h ****     */
 348:Generated_Source\PSoC6\pdl\drivers/peripheral/scb/cy_scb_ezi2c.h ****     bool enableWakeFromSleep;
 349:Generated_Source\PSoC6\pdl\drivers/peripheral/scb/cy_scb_ezi2c.h **** } cy_stc_scb_ezi2c_config_t;
 350:Generated_Source\PSoC6\pdl\drivers/peripheral/scb/cy_scb_ezi2c.h **** 
 351:Generated_Source\PSoC6\pdl\drivers/peripheral/scb/cy_scb_ezi2c.h **** /** EZI2C slave context structure.
 352:Generated_Source\PSoC6\pdl\drivers/peripheral/scb/cy_scb_ezi2c.h **** * All fields for the context structure are internal. Firmware never reads or 
 353:Generated_Source\PSoC6\pdl\drivers/peripheral/scb/cy_scb_ezi2c.h **** * writes these values. Firmware allocates the structure and provides the 
 354:Generated_Source\PSoC6\pdl\drivers/peripheral/scb/cy_scb_ezi2c.h **** * address of the structure to the driver in function calls. Firmware must 
 355:Generated_Source\PSoC6\pdl\drivers/peripheral/scb/cy_scb_ezi2c.h **** * ensure that the defined instance of this structure remains in scope 
 356:Generated_Source\PSoC6\pdl\drivers/peripheral/scb/cy_scb_ezi2c.h **** * while the drive is in use.
 357:Generated_Source\PSoC6\pdl\drivers/peripheral/scb/cy_scb_ezi2c.h **** */
 358:Generated_Source\PSoC6\pdl\drivers/peripheral/scb/cy_scb_ezi2c.h **** typedef struct cy_stc_scb_ezi2c_context
 359:Generated_Source\PSoC6\pdl\drivers/peripheral/scb/cy_scb_ezi2c.h **** {
 360:Generated_Source\PSoC6\pdl\drivers/peripheral/scb/cy_scb_ezi2c.h ****     /** \cond INTERNAL */
ARM GAS  C:\Users\DAVIDW~1\AppData\Local\Temp\ccImPayJ.s 			page 28


 361:Generated_Source\PSoC6\pdl\drivers/peripheral/scb/cy_scb_ezi2c.h ****     volatile cy_en_scb_ezi2c_state_t state;  /**< The driver state */
 362:Generated_Source\PSoC6\pdl\drivers/peripheral/scb/cy_scb_ezi2c.h ****     volatile uint32_t status;                /**< The slave status */
 363:Generated_Source\PSoC6\pdl\drivers/peripheral/scb/cy_scb_ezi2c.h **** 
 364:Generated_Source\PSoC6\pdl\drivers/peripheral/scb/cy_scb_ezi2c.h ****     uint8_t  address1;      /**< The primary slave address (7-bits right justified) */
 365:Generated_Source\PSoC6\pdl\drivers/peripheral/scb/cy_scb_ezi2c.h ****     uint8_t  address2;      /**< The secondary slave address (7-bits right justified) */
 366:Generated_Source\PSoC6\pdl\drivers/peripheral/scb/cy_scb_ezi2c.h ****     cy_en_scb_ezi2c_sub_addr_size_t subAddrSize;   /**< The sub-address size */
 367:Generated_Source\PSoC6\pdl\drivers/peripheral/scb/cy_scb_ezi2c.h **** 
 368:Generated_Source\PSoC6\pdl\drivers/peripheral/scb/cy_scb_ezi2c.h ****     uint32_t idx;       /**< The index within the buffer during operation */
 369:Generated_Source\PSoC6\pdl\drivers/peripheral/scb/cy_scb_ezi2c.h ****     uint32_t baseAddr1; /**< The valid base address for the primary slave address */
 370:Generated_Source\PSoC6\pdl\drivers/peripheral/scb/cy_scb_ezi2c.h ****     uint32_t baseAddr2; /**< The valid base address for the secondary slave address */
 371:Generated_Source\PSoC6\pdl\drivers/peripheral/scb/cy_scb_ezi2c.h **** 
 372:Generated_Source\PSoC6\pdl\drivers/peripheral/scb/cy_scb_ezi2c.h ****     bool     addr1Active; /**< Defines whether the request is intended for the primary slave addres
 373:Generated_Source\PSoC6\pdl\drivers/peripheral/scb/cy_scb_ezi2c.h ****     uint8_t  *curBuf;     /**< The pointer to the current location in the buffer (while it is acces
 374:Generated_Source\PSoC6\pdl\drivers/peripheral/scb/cy_scb_ezi2c.h ****     uint32_t bufSize;     /**< Specifies how many bytes are left in the current buffer */
 375:Generated_Source\PSoC6\pdl\drivers/peripheral/scb/cy_scb_ezi2c.h **** 
 376:Generated_Source\PSoC6\pdl\drivers/peripheral/scb/cy_scb_ezi2c.h ****     uint8_t *buf1;          /**< The pointer to the buffer exposed  on the request intended for the
 377:Generated_Source\PSoC6\pdl\drivers/peripheral/scb/cy_scb_ezi2c.h ****     uint32_t buf1Size;      /**< The buffer size assigned to the primary slave address */
 378:Generated_Source\PSoC6\pdl\drivers/peripheral/scb/cy_scb_ezi2c.h ****     uint32_t buf1rwBondary; /**< The Read/Write boundary within the buffer assigned to the primary 
 379:Generated_Source\PSoC6\pdl\drivers/peripheral/scb/cy_scb_ezi2c.h **** 
 380:Generated_Source\PSoC6\pdl\drivers/peripheral/scb/cy_scb_ezi2c.h ****     uint8_t *buf2;          /**< The pointer to the buffer exposed on the request intended for the 
 381:Generated_Source\PSoC6\pdl\drivers/peripheral/scb/cy_scb_ezi2c.h ****     uint32_t buf2Size;      /**< The buffer size assigned to the secondary slave address */
 382:Generated_Source\PSoC6\pdl\drivers/peripheral/scb/cy_scb_ezi2c.h ****     uint32_t buf2rwBondary; /**< The Read/Write boundary within the buffer assigned for the seconda
 383:Generated_Source\PSoC6\pdl\drivers/peripheral/scb/cy_scb_ezi2c.h ****     /** \endcond */
 384:Generated_Source\PSoC6\pdl\drivers/peripheral/scb/cy_scb_ezi2c.h **** } cy_stc_scb_ezi2c_context_t;
 385:Generated_Source\PSoC6\pdl\drivers/peripheral/scb/cy_scb_ezi2c.h **** /** \} group_scb_ezi2c_data_structures */
 386:Generated_Source\PSoC6\pdl\drivers/peripheral/scb/cy_scb_ezi2c.h **** 
 387:Generated_Source\PSoC6\pdl\drivers/peripheral/scb/cy_scb_ezi2c.h **** 
 388:Generated_Source\PSoC6\pdl\drivers/peripheral/scb/cy_scb_ezi2c.h **** /***************************************
 389:Generated_Source\PSoC6\pdl\drivers/peripheral/scb/cy_scb_ezi2c.h **** *        Function Prototypes
 390:Generated_Source\PSoC6\pdl\drivers/peripheral/scb/cy_scb_ezi2c.h **** ***************************************/
 391:Generated_Source\PSoC6\pdl\drivers/peripheral/scb/cy_scb_ezi2c.h **** 
 392:Generated_Source\PSoC6\pdl\drivers/peripheral/scb/cy_scb_ezi2c.h **** /**
 393:Generated_Source\PSoC6\pdl\drivers/peripheral/scb/cy_scb_ezi2c.h **** * \addtogroup group_scb_ezi2c_general_functions
 394:Generated_Source\PSoC6\pdl\drivers/peripheral/scb/cy_scb_ezi2c.h **** * \{
 395:Generated_Source\PSoC6\pdl\drivers/peripheral/scb/cy_scb_ezi2c.h **** */
 396:Generated_Source\PSoC6\pdl\drivers/peripheral/scb/cy_scb_ezi2c.h **** cy_en_scb_ezi2c_status_t Cy_SCB_EZI2C_Init(CySCB_Type *base, cy_stc_scb_ezi2c_config_t const *confi
 397:Generated_Source\PSoC6\pdl\drivers/peripheral/scb/cy_scb_ezi2c.h ****                                            cy_stc_scb_ezi2c_context_t *context);
 398:Generated_Source\PSoC6\pdl\drivers/peripheral/scb/cy_scb_ezi2c.h **** void     Cy_SCB_EZI2C_DeInit(CySCB_Type *base);
 399:Generated_Source\PSoC6\pdl\drivers/peripheral/scb/cy_scb_ezi2c.h **** __STATIC_INLINE void Cy_SCB_EZI2C_Enable(CySCB_Type *base);
 400:Generated_Source\PSoC6\pdl\drivers/peripheral/scb/cy_scb_ezi2c.h **** void     Cy_SCB_EZI2C_Disable(CySCB_Type *base, cy_stc_scb_ezi2c_context_t *context);
 401:Generated_Source\PSoC6\pdl\drivers/peripheral/scb/cy_scb_ezi2c.h **** 
 402:Generated_Source\PSoC6\pdl\drivers/peripheral/scb/cy_scb_ezi2c.h **** void     Cy_SCB_EZI2C_SetAddress1(CySCB_Type *base, uint8_t addr, cy_stc_scb_ezi2c_context_t *conte
 403:Generated_Source\PSoC6\pdl\drivers/peripheral/scb/cy_scb_ezi2c.h **** uint32_t Cy_SCB_EZI2C_GetAddress1(CySCB_Type const *base, cy_stc_scb_ezi2c_context_t const *context
 404:Generated_Source\PSoC6\pdl\drivers/peripheral/scb/cy_scb_ezi2c.h **** 
 405:Generated_Source\PSoC6\pdl\drivers/peripheral/scb/cy_scb_ezi2c.h **** void     Cy_SCB_EZI2C_SetAddress2(CySCB_Type *base, uint8_t addr, cy_stc_scb_ezi2c_context_t *conte
 406:Generated_Source\PSoC6\pdl\drivers/peripheral/scb/cy_scb_ezi2c.h **** uint32_t Cy_SCB_EZI2C_GetAddress2(CySCB_Type const *base, cy_stc_scb_ezi2c_context_t const *context
 407:Generated_Source\PSoC6\pdl\drivers/peripheral/scb/cy_scb_ezi2c.h **** /** \} group_scb_ezi2c_general_functions */
 408:Generated_Source\PSoC6\pdl\drivers/peripheral/scb/cy_scb_ezi2c.h **** 
 409:Generated_Source\PSoC6\pdl\drivers/peripheral/scb/cy_scb_ezi2c.h **** /**
 410:Generated_Source\PSoC6\pdl\drivers/peripheral/scb/cy_scb_ezi2c.h **** * \addtogroup group_scb_ezi2c_slave_functions
 411:Generated_Source\PSoC6\pdl\drivers/peripheral/scb/cy_scb_ezi2c.h **** * \{
 412:Generated_Source\PSoC6\pdl\drivers/peripheral/scb/cy_scb_ezi2c.h **** */
 413:Generated_Source\PSoC6\pdl\drivers/peripheral/scb/cy_scb_ezi2c.h **** void Cy_SCB_EZI2C_SetBuffer1(CySCB_Type const *base, uint8_t *buffer, uint32_t size, uint32_t rwBou
 414:Generated_Source\PSoC6\pdl\drivers/peripheral/scb/cy_scb_ezi2c.h ****                              cy_stc_scb_ezi2c_context_t *context);
 415:Generated_Source\PSoC6\pdl\drivers/peripheral/scb/cy_scb_ezi2c.h **** void Cy_SCB_EZI2C_SetBuffer2(CySCB_Type const *base, uint8_t *buffer, uint32_t size, uint32_t rwBou
 416:Generated_Source\PSoC6\pdl\drivers/peripheral/scb/cy_scb_ezi2c.h ****                              cy_stc_scb_ezi2c_context_t *context);
 417:Generated_Source\PSoC6\pdl\drivers/peripheral/scb/cy_scb_ezi2c.h **** 
ARM GAS  C:\Users\DAVIDW~1\AppData\Local\Temp\ccImPayJ.s 			page 29


 418:Generated_Source\PSoC6\pdl\drivers/peripheral/scb/cy_scb_ezi2c.h **** uint32_t Cy_SCB_EZI2C_GetActivity(CySCB_Type const *base, cy_stc_scb_ezi2c_context_t *context);
 419:Generated_Source\PSoC6\pdl\drivers/peripheral/scb/cy_scb_ezi2c.h **** 
 420:Generated_Source\PSoC6\pdl\drivers/peripheral/scb/cy_scb_ezi2c.h **** void Cy_SCB_EZI2C_Interrupt(CySCB_Type *base, cy_stc_scb_ezi2c_context_t *context);
 421:Generated_Source\PSoC6\pdl\drivers/peripheral/scb/cy_scb_ezi2c.h **** /** \} group_scb_ezi2c_slave_functions */
 422:Generated_Source\PSoC6\pdl\drivers/peripheral/scb/cy_scb_ezi2c.h **** 
 423:Generated_Source\PSoC6\pdl\drivers/peripheral/scb/cy_scb_ezi2c.h **** /**
 424:Generated_Source\PSoC6\pdl\drivers/peripheral/scb/cy_scb_ezi2c.h **** * \addtogroup group_scb_ezi2c_low_power_functions
 425:Generated_Source\PSoC6\pdl\drivers/peripheral/scb/cy_scb_ezi2c.h **** * \{
 426:Generated_Source\PSoC6\pdl\drivers/peripheral/scb/cy_scb_ezi2c.h **** */
 427:Generated_Source\PSoC6\pdl\drivers/peripheral/scb/cy_scb_ezi2c.h **** cy_en_syspm_status_t Cy_SCB_EZI2C_DeepSleepCallback(cy_stc_syspm_callback_params_t *callbackParams)
 428:Generated_Source\PSoC6\pdl\drivers/peripheral/scb/cy_scb_ezi2c.h **** cy_en_syspm_status_t Cy_SCB_EZI2C_HibernateCallback(cy_stc_syspm_callback_params_t *callbackParams)
 429:Generated_Source\PSoC6\pdl\drivers/peripheral/scb/cy_scb_ezi2c.h **** /** \} group_scb_ezi2c_low_power_functions */
 430:Generated_Source\PSoC6\pdl\drivers/peripheral/scb/cy_scb_ezi2c.h **** 
 431:Generated_Source\PSoC6\pdl\drivers/peripheral/scb/cy_scb_ezi2c.h **** 
 432:Generated_Source\PSoC6\pdl\drivers/peripheral/scb/cy_scb_ezi2c.h **** /***************************************
 433:Generated_Source\PSoC6\pdl\drivers/peripheral/scb/cy_scb_ezi2c.h **** *            API Constants
 434:Generated_Source\PSoC6\pdl\drivers/peripheral/scb/cy_scb_ezi2c.h **** ***************************************/
 435:Generated_Source\PSoC6\pdl\drivers/peripheral/scb/cy_scb_ezi2c.h **** 
 436:Generated_Source\PSoC6\pdl\drivers/peripheral/scb/cy_scb_ezi2c.h **** /**
 437:Generated_Source\PSoC6\pdl\drivers/peripheral/scb/cy_scb_ezi2c.h **** * \addtogroup group_scb_ezi2c_macros
 438:Generated_Source\PSoC6\pdl\drivers/peripheral/scb/cy_scb_ezi2c.h **** * \{
 439:Generated_Source\PSoC6\pdl\drivers/peripheral/scb/cy_scb_ezi2c.h **** */
 440:Generated_Source\PSoC6\pdl\drivers/peripheral/scb/cy_scb_ezi2c.h **** 
 441:Generated_Source\PSoC6\pdl\drivers/peripheral/scb/cy_scb_ezi2c.h **** /**
 442:Generated_Source\PSoC6\pdl\drivers/peripheral/scb/cy_scb_ezi2c.h **** * \defgroup group_scb_ezi2c_macros_get_activity EZI2C Activity Status
 443:Generated_Source\PSoC6\pdl\drivers/peripheral/scb/cy_scb_ezi2c.h **** * Each EZI2C slave status is encoded in a separate bit, therefore multiple bits
 444:Generated_Source\PSoC6\pdl\drivers/peripheral/scb/cy_scb_ezi2c.h **** * may be set to indicate the current status.
 445:Generated_Source\PSoC6\pdl\drivers/peripheral/scb/cy_scb_ezi2c.h **** * \{
 446:Generated_Source\PSoC6\pdl\drivers/peripheral/scb/cy_scb_ezi2c.h **** */
 447:Generated_Source\PSoC6\pdl\drivers/peripheral/scb/cy_scb_ezi2c.h **** 
 448:Generated_Source\PSoC6\pdl\drivers/peripheral/scb/cy_scb_ezi2c.h **** /**
 449:Generated_Source\PSoC6\pdl\drivers/peripheral/scb/cy_scb_ezi2c.h **** * The Read transfer intended for the primary slave address is complete.
 450:Generated_Source\PSoC6\pdl\drivers/peripheral/scb/cy_scb_ezi2c.h **** * The error condition status bit must be checked to ensure that the Read
 451:Generated_Source\PSoC6\pdl\drivers/peripheral/scb/cy_scb_ezi2c.h **** * transfer was completed successfully.
 452:Generated_Source\PSoC6\pdl\drivers/peripheral/scb/cy_scb_ezi2c.h **** */
 453:Generated_Source\PSoC6\pdl\drivers/peripheral/scb/cy_scb_ezi2c.h **** #define CY_SCB_EZI2C_STATUS_READ1       (0x01UL)
 454:Generated_Source\PSoC6\pdl\drivers/peripheral/scb/cy_scb_ezi2c.h **** 
 455:Generated_Source\PSoC6\pdl\drivers/peripheral/scb/cy_scb_ezi2c.h **** /**
 456:Generated_Source\PSoC6\pdl\drivers/peripheral/scb/cy_scb_ezi2c.h **** * The Write transfer intended for the primary slave address is complete.
 457:Generated_Source\PSoC6\pdl\drivers/peripheral/scb/cy_scb_ezi2c.h **** * The buffer content was modified.
 458:Generated_Source\PSoC6\pdl\drivers/peripheral/scb/cy_scb_ezi2c.h **** * The error condition status bit must be checked to ensure that the Write
 459:Generated_Source\PSoC6\pdl\drivers/peripheral/scb/cy_scb_ezi2c.h **** * transfer was completed successfully.
 460:Generated_Source\PSoC6\pdl\drivers/peripheral/scb/cy_scb_ezi2c.h **** */
 461:Generated_Source\PSoC6\pdl\drivers/peripheral/scb/cy_scb_ezi2c.h **** #define CY_SCB_EZI2C_STATUS_WRITE1      (0x02UL)
 462:Generated_Source\PSoC6\pdl\drivers/peripheral/scb/cy_scb_ezi2c.h **** 
 463:Generated_Source\PSoC6\pdl\drivers/peripheral/scb/cy_scb_ezi2c.h **** /**
 464:Generated_Source\PSoC6\pdl\drivers/peripheral/scb/cy_scb_ezi2c.h **** * The Read transfer intended for the secondary slave address is complete.
 465:Generated_Source\PSoC6\pdl\drivers/peripheral/scb/cy_scb_ezi2c.h **** * The error condition status bit must be checked to ensure that the Read
 466:Generated_Source\PSoC6\pdl\drivers/peripheral/scb/cy_scb_ezi2c.h **** * transfer was completed successfully.
 467:Generated_Source\PSoC6\pdl\drivers/peripheral/scb/cy_scb_ezi2c.h **** */
 468:Generated_Source\PSoC6\pdl\drivers/peripheral/scb/cy_scb_ezi2c.h **** #define CY_SCB_EZI2C_STATUS_READ2       (0x04UL)
 469:Generated_Source\PSoC6\pdl\drivers/peripheral/scb/cy_scb_ezi2c.h **** 
 470:Generated_Source\PSoC6\pdl\drivers/peripheral/scb/cy_scb_ezi2c.h **** /**
 471:Generated_Source\PSoC6\pdl\drivers/peripheral/scb/cy_scb_ezi2c.h **** * The Write transfer intended for the secondary slave address is complete.
 472:Generated_Source\PSoC6\pdl\drivers/peripheral/scb/cy_scb_ezi2c.h **** * The buffer content was modified.
 473:Generated_Source\PSoC6\pdl\drivers/peripheral/scb/cy_scb_ezi2c.h **** * The error condition status bit must be checked to ensure that the Write
 474:Generated_Source\PSoC6\pdl\drivers/peripheral/scb/cy_scb_ezi2c.h **** * transfer was completed successfully.
ARM GAS  C:\Users\DAVIDW~1\AppData\Local\Temp\ccImPayJ.s 			page 30


 475:Generated_Source\PSoC6\pdl\drivers/peripheral/scb/cy_scb_ezi2c.h **** */
 476:Generated_Source\PSoC6\pdl\drivers/peripheral/scb/cy_scb_ezi2c.h **** #define CY_SCB_EZI2C_STATUS_WRITE2       (0x08UL)
 477:Generated_Source\PSoC6\pdl\drivers/peripheral/scb/cy_scb_ezi2c.h **** 
 478:Generated_Source\PSoC6\pdl\drivers/peripheral/scb/cy_scb_ezi2c.h **** /**
 479:Generated_Source\PSoC6\pdl\drivers/peripheral/scb/cy_scb_ezi2c.h **** * A transfer intended for the primary address or secondary address is in
 480:Generated_Source\PSoC6\pdl\drivers/peripheral/scb/cy_scb_ezi2c.h **** * progress. The status bit is set after an address match and cleared
 481:Generated_Source\PSoC6\pdl\drivers/peripheral/scb/cy_scb_ezi2c.h **** * on a Stop or ReStart condition.
 482:Generated_Source\PSoC6\pdl\drivers/peripheral/scb/cy_scb_ezi2c.h **** */
 483:Generated_Source\PSoC6\pdl\drivers/peripheral/scb/cy_scb_ezi2c.h **** #define CY_SCB_EZI2C_STATUS_BUSY        (0x10UL)
 484:Generated_Source\PSoC6\pdl\drivers/peripheral/scb/cy_scb_ezi2c.h **** 
 485:Generated_Source\PSoC6\pdl\drivers/peripheral/scb/cy_scb_ezi2c.h **** /**
 486:Generated_Source\PSoC6\pdl\drivers/peripheral/scb/cy_scb_ezi2c.h **** * An error occurred during a transfer intended for the primary or secondary
 487:Generated_Source\PSoC6\pdl\drivers/peripheral/scb/cy_scb_ezi2c.h **** * slave address. The sources of the error are: a misplaced Start or Stop
 488:Generated_Source\PSoC6\pdl\drivers/peripheral/scb/cy_scb_ezi2c.h **** * condition or lost arbitration while the slave drives SDA.
 489:Generated_Source\PSoC6\pdl\drivers/peripheral/scb/cy_scb_ezi2c.h **** * When CY_SCB_EZI2C_STATUS_ERR is set, the slave buffer may contain an
 490:Generated_Source\PSoC6\pdl\drivers/peripheral/scb/cy_scb_ezi2c.h **** * invalid byte. Discard the buffer content in this case.
 491:Generated_Source\PSoC6\pdl\drivers/peripheral/scb/cy_scb_ezi2c.h **** */
 492:Generated_Source\PSoC6\pdl\drivers/peripheral/scb/cy_scb_ezi2c.h **** #define CY_SCB_EZI2C_STATUS_ERR         (0x20UL)
 493:Generated_Source\PSoC6\pdl\drivers/peripheral/scb/cy_scb_ezi2c.h **** /** \} group_scb_ezi2c_macros_get_activity */
 494:Generated_Source\PSoC6\pdl\drivers/peripheral/scb/cy_scb_ezi2c.h **** 
 495:Generated_Source\PSoC6\pdl\drivers/peripheral/scb/cy_scb_ezi2c.h **** /**
 496:Generated_Source\PSoC6\pdl\drivers/peripheral/scb/cy_scb_ezi2c.h **** * This value is returned by the slave when the buffer is not configured or
 497:Generated_Source\PSoC6\pdl\drivers/peripheral/scb/cy_scb_ezi2c.h **** * the master requests more bytes than are available in the buffer.
 498:Generated_Source\PSoC6\pdl\drivers/peripheral/scb/cy_scb_ezi2c.h **** */
 499:Generated_Source\PSoC6\pdl\drivers/peripheral/scb/cy_scb_ezi2c.h **** #define CY_SCB_EZI2C_DEFAULT_TX  (0xFFUL)
 500:Generated_Source\PSoC6\pdl\drivers/peripheral/scb/cy_scb_ezi2c.h **** 
 501:Generated_Source\PSoC6\pdl\drivers/peripheral/scb/cy_scb_ezi2c.h **** 
 502:Generated_Source\PSoC6\pdl\drivers/peripheral/scb/cy_scb_ezi2c.h **** /***************************************
 503:Generated_Source\PSoC6\pdl\drivers/peripheral/scb/cy_scb_ezi2c.h **** *         Internal Constants
 504:Generated_Source\PSoC6\pdl\drivers/peripheral/scb/cy_scb_ezi2c.h **** ***************************************/
 505:Generated_Source\PSoC6\pdl\drivers/peripheral/scb/cy_scb_ezi2c.h **** 
 506:Generated_Source\PSoC6\pdl\drivers/peripheral/scb/cy_scb_ezi2c.h **** /** \cond INTERNAL */
 507:Generated_Source\PSoC6\pdl\drivers/peripheral/scb/cy_scb_ezi2c.h **** /* Default registers values */
 508:Generated_Source\PSoC6\pdl\drivers/peripheral/scb/cy_scb_ezi2c.h **** #define CY_SCB_EZI2C_I2C_CTRL   (SCB_I2C_CTRL_S_GENERAL_IGNORE_Msk | SCB_I2C_CTRL_SLAVE_MODE_Msk)
 509:Generated_Source\PSoC6\pdl\drivers/peripheral/scb/cy_scb_ezi2c.h **** #define CY_SCB_EZI2C_RX_CTRL    (CY_SCB_I2C_RX_CTRL)
 510:Generated_Source\PSoC6\pdl\drivers/peripheral/scb/cy_scb_ezi2c.h **** #define CY_SCB_EZI2C_TX_CTRL    (CY_SCB_I2C_TX_CTRL)
 511:Generated_Source\PSoC6\pdl\drivers/peripheral/scb/cy_scb_ezi2c.h **** 
 512:Generated_Source\PSoC6\pdl\drivers/peripheral/scb/cy_scb_ezi2c.h **** #define CY_SCB_EZI2C_SLAVE_INTR     (CY_SCB_SLAVE_INTR_I2C_ADDR_MATCH | CY_SCB_SLAVE_INTR_I2C_STOP 
 513:Generated_Source\PSoC6\pdl\drivers/peripheral/scb/cy_scb_ezi2c.h ****                                      CY_SCB_SLAVE_INTR_I2C_BUS_ERROR  | CY_SCB_SLAVE_INTR_I2C_ARB_L
 514:Generated_Source\PSoC6\pdl\drivers/peripheral/scb/cy_scb_ezi2c.h **** /* Error interrupt sources */
 515:Generated_Source\PSoC6\pdl\drivers/peripheral/scb/cy_scb_ezi2c.h **** #define CY_SCB_EZI2C_SLAVE_INTR_ERROR   (CY_SCB_SLAVE_INTR_I2C_BUS_ERROR  | CY_SCB_SLAVE_INTR_I2C_A
 516:Generated_Source\PSoC6\pdl\drivers/peripheral/scb/cy_scb_ezi2c.h **** 
 517:Generated_Source\PSoC6\pdl\drivers/peripheral/scb/cy_scb_ezi2c.h **** /* Disables Stop interrupt source */
 518:Generated_Source\PSoC6\pdl\drivers/peripheral/scb/cy_scb_ezi2c.h **** #define CY_SCB_EZI2C_SLAVE_INTR_NO_STOP (CY_SCB_EZI2C_SLAVE_INTR & ((uint32_t) ~CY_SCB_SLAVE_INTR_I
 519:Generated_Source\PSoC6\pdl\drivers/peripheral/scb/cy_scb_ezi2c.h **** 
 520:Generated_Source\PSoC6\pdl\drivers/peripheral/scb/cy_scb_ezi2c.h **** /* Disable Address interrupt source */
 521:Generated_Source\PSoC6\pdl\drivers/peripheral/scb/cy_scb_ezi2c.h **** #define CY_SCB_EZI2C_SLAVE_INTR_NO_ADDR (CY_SCB_EZI2C_SLAVE_INTR & ((uint32_t) ~CY_SCB_SLAVE_INTR_I
 522:Generated_Source\PSoC6\pdl\drivers/peripheral/scb/cy_scb_ezi2c.h **** 
 523:Generated_Source\PSoC6\pdl\drivers/peripheral/scb/cy_scb_ezi2c.h **** /* FIFO size */
 524:Generated_Source\PSoC6\pdl\drivers/peripheral/scb/cy_scb_ezi2c.h **** #define CY_SCB_EZI2C_FIFO_SIZE(base)          CY_SCB_FIFO_SIZE(base)
 525:Generated_Source\PSoC6\pdl\drivers/peripheral/scb/cy_scb_ezi2c.h **** #define CY_SCB_EZI2C_HALF_FIFO_SIZE(base)    (CY_SCB_FIFO_SIZE(base) / 2UL)
 526:Generated_Source\PSoC6\pdl\drivers/peripheral/scb/cy_scb_ezi2c.h **** 
 527:Generated_Source\PSoC6\pdl\drivers/peripheral/scb/cy_scb_ezi2c.h **** #define CY_SCB_EZI2C_ONE_ADDRESS_MASK   (0xFFUL)
 528:Generated_Source\PSoC6\pdl\drivers/peripheral/scb/cy_scb_ezi2c.h **** 
 529:Generated_Source\PSoC6\pdl\drivers/peripheral/scb/cy_scb_ezi2c.h **** #define CY_SCB_EZI2C_IS_NUM_OF_ADDR_VALID(numAddr)  ( (CY_SCB_EZI2C_ONE_ADDRESS   == (numAddr)) || 
 530:Generated_Source\PSoC6\pdl\drivers/peripheral/scb/cy_scb_ezi2c.h ****                                                       (CY_SCB_EZI2C_TWO_ADDRESSES == (numAddr)) )
 531:Generated_Source\PSoC6\pdl\drivers/peripheral/scb/cy_scb_ezi2c.h **** 
ARM GAS  C:\Users\DAVIDW~1\AppData\Local\Temp\ccImPayJ.s 			page 31


 532:Generated_Source\PSoC6\pdl\drivers/peripheral/scb/cy_scb_ezi2c.h **** #define CY_SCB_EZI2C_IS_SUB_ADDR_SIZE_VALID(subAddrSize)    ( (CY_SCB_EZI2C_SUB_ADDR8_BITS  == (sub
 533:Generated_Source\PSoC6\pdl\drivers/peripheral/scb/cy_scb_ezi2c.h ****                                                               (CY_SCB_EZI2C_SUB_ADDR16_BITS == (sub
 534:Generated_Source\PSoC6\pdl\drivers/peripheral/scb/cy_scb_ezi2c.h **** /** \endcond */
 535:Generated_Source\PSoC6\pdl\drivers/peripheral/scb/cy_scb_ezi2c.h **** /** \} group_scb_ezi2c_macros */
 536:Generated_Source\PSoC6\pdl\drivers/peripheral/scb/cy_scb_ezi2c.h **** 
 537:Generated_Source\PSoC6\pdl\drivers/peripheral/scb/cy_scb_ezi2c.h **** 
 538:Generated_Source\PSoC6\pdl\drivers/peripheral/scb/cy_scb_ezi2c.h **** /***************************************
 539:Generated_Source\PSoC6\pdl\drivers/peripheral/scb/cy_scb_ezi2c.h **** *    Inline Function Implementation
 540:Generated_Source\PSoC6\pdl\drivers/peripheral/scb/cy_scb_ezi2c.h **** ***************************************/
 541:Generated_Source\PSoC6\pdl\drivers/peripheral/scb/cy_scb_ezi2c.h **** 
 542:Generated_Source\PSoC6\pdl\drivers/peripheral/scb/cy_scb_ezi2c.h **** /**
 543:Generated_Source\PSoC6\pdl\drivers/peripheral/scb/cy_scb_ezi2c.h **** * \addtogroup group_scb_ezi2c_general_functions
 544:Generated_Source\PSoC6\pdl\drivers/peripheral/scb/cy_scb_ezi2c.h **** * \{
 545:Generated_Source\PSoC6\pdl\drivers/peripheral/scb/cy_scb_ezi2c.h **** */
 546:Generated_Source\PSoC6\pdl\drivers/peripheral/scb/cy_scb_ezi2c.h **** /*******************************************************************************
 547:Generated_Source\PSoC6\pdl\drivers/peripheral/scb/cy_scb_ezi2c.h **** * Function Name: Cy_SCB_EZI2C_Enable
 548:Generated_Source\PSoC6\pdl\drivers/peripheral/scb/cy_scb_ezi2c.h **** ****************************************************************************//**
 549:Generated_Source\PSoC6\pdl\drivers/peripheral/scb/cy_scb_ezi2c.h **** *
 550:Generated_Source\PSoC6\pdl\drivers/peripheral/scb/cy_scb_ezi2c.h **** * Enables the SCB block for the EZI2C operation
 551:Generated_Source\PSoC6\pdl\drivers/peripheral/scb/cy_scb_ezi2c.h **** *
 552:Generated_Source\PSoC6\pdl\drivers/peripheral/scb/cy_scb_ezi2c.h **** * \param base
 553:Generated_Source\PSoC6\pdl\drivers/peripheral/scb/cy_scb_ezi2c.h **** * The pointer to the EZI2C SCB instance.
 554:Generated_Source\PSoC6\pdl\drivers/peripheral/scb/cy_scb_ezi2c.h **** *
 555:Generated_Source\PSoC6\pdl\drivers/peripheral/scb/cy_scb_ezi2c.h **** *******************************************************************************/
 556:Generated_Source\PSoC6\pdl\drivers/peripheral/scb/cy_scb_ezi2c.h **** __STATIC_INLINE void Cy_SCB_EZI2C_Enable(CySCB_Type *base)
 557:Generated_Source\PSoC6\pdl\drivers/peripheral/scb/cy_scb_ezi2c.h **** {
 558:Generated_Source\PSoC6\pdl\drivers/peripheral/scb/cy_scb_ezi2c.h ****     base->CTRL |= SCB_CTRL_ENABLED_Msk;
 115              		.loc 4 558 0
 116 0038 064A     		ldr	r2, .L7+12
 117 003a 1368     		ldr	r3, [r2]
 118 003c 8021     		movs	r1, #128
 119 003e 0906     		lsls	r1, r1, #24
 120 0040 0B43     		orrs	r3, r1
 121 0042 1360     		str	r3, [r2]
 122              	.LVL6:
 123              	.LBE9:
 124              	.LBE8:
  94:Generated_Source\PSoC6/SCB.c ****     #endif /* (SCB_SCB_IRQ__INTC_ASSIGNED) */
  95:Generated_Source\PSoC6/SCB.c ****     
  96:Generated_Source\PSoC6/SCB.c ****     Cy_SCB_EZI2C_Enable(SCB_HW);
  97:Generated_Source\PSoC6/SCB.c **** }
 125              		.loc 2 97 0
 126              		@ sp needed
 127 0044 10BD     		pop	{r4, pc}
 128              	.L8:
 129 0046 C046     		.align	2
 130              	.L7:
 131 0048 00000000 		.word	.LANCHOR0
 132 004c 00000000 		.word	SCB_context
 133 0050 00000000 		.word	.LANCHOR1
 134 0054 00006440 		.word	1080295424
 135 0058 00000000 		.word	SCB_Interrupt
 136 005c 00000000 		.word	SCB_SCB_IRQ_cfg
 137 0060 00E100E0 		.word	-536813312
 138              		.cfi_endproc
 139              	.LFE133:
 140              		.size	SCB_Start, .-SCB_Start
ARM GAS  C:\Users\DAVIDW~1\AppData\Local\Temp\ccImPayJ.s 			page 32


 141              		.comm	SCB_context,60,4
 142              		.global	SCB_config
 143              		.global	SCB_initVar
 144              		.section	.rodata
 145              		.align	2
 146              		.set	.LANCHOR1,. + 0
 147              		.type	SCB_config, %object
 148              		.size	SCB_config, 5
 149              	SCB_config:
 150 0000 00       		.byte	0
 151 0001 08       		.byte	8
 152 0002 00       		.byte	0
 153 0003 01       		.byte	1
 154 0004 00       		.byte	0
 155              		.bss
 156              		.set	.LANCHOR0,. + 0
 157              		.type	SCB_initVar, %object
 158              		.size	SCB_initVar, 1
 159              	SCB_initVar:
 160 0000 00       		.space	1
 161              		.text
 162              	.Letext0:
 163              		.file 5 "Generated_Source\\PSoC6\\pdl\\devices/psoc6/psoc63/include/cy8c6347bzi_bld53.h"
 164              		.file 6 "e:\\program files\\cypress\\psoc creator\\4.2\\psoc creator\\import\\gnu\\arm\\5.4.1\\arm
 165              		.file 7 "e:\\program files\\cypress\\psoc creator\\4.2\\psoc creator\\import\\gnu\\arm\\5.4.1\\arm
 166              		.file 8 "Generated_Source\\PSoC6\\pdl\\devices/psoc6/ip/cyip_scb.h"
 167              		.file 9 "Generated_Source\\PSoC6\\pdl\\drivers/peripheral/sysint/cy_sysint.h"
 168              		.file 10 "Generated_Source\\PSoC6\\cyfitter_sysint_cfg.h"